ARM GAS  /tmp/ccLdxC59.s 			page 1


   1              		.cpu cortex-m7
   2              		.eabi_attribute 28, 1
   3              		.eabi_attribute 20, 1
   4              		.eabi_attribute 21, 1
   5              		.eabi_attribute 23, 3
   6              		.eabi_attribute 24, 1
   7              		.eabi_attribute 25, 1
   8              		.eabi_attribute 26, 1
   9              		.eabi_attribute 30, 2
  10              		.eabi_attribute 34, 1
  11              		.eabi_attribute 18, 4
  12              		.file	"stm32h7xx_hal_rcc.c"
  13              		.text
  14              	.Ltext0:
  15              		.cfi_sections	.debug_frame
  16              		.section	.text.HAL_RCC_DeInit,"ax",%progbits
  17              		.align	1
  18              		.p2align 2,,3
  19              		.global	HAL_RCC_DeInit
  20              		.arch armv7e-m
  21              		.syntax unified
  22              		.thumb
  23              		.thumb_func
  24              		.fpu fpv5-d16
  26              	HAL_RCC_DeInit:
  27              	.LFB141:
  28              		.file 1 "Drivers/STM32H7xx_HAL_Driver/Src/stm32h7xx_hal_rcc.c"
   1:Drivers/STM32H7xx_HAL_Driver/Src/stm32h7xx_hal_rcc.c **** /**
   2:Drivers/STM32H7xx_HAL_Driver/Src/stm32h7xx_hal_rcc.c ****   ******************************************************************************
   3:Drivers/STM32H7xx_HAL_Driver/Src/stm32h7xx_hal_rcc.c ****   * @file    stm32h7xx_hal_rcc.c
   4:Drivers/STM32H7xx_HAL_Driver/Src/stm32h7xx_hal_rcc.c ****   * @author  MCD Application Team
   5:Drivers/STM32H7xx_HAL_Driver/Src/stm32h7xx_hal_rcc.c ****   * @brief   RCC HAL module driver.
   6:Drivers/STM32H7xx_HAL_Driver/Src/stm32h7xx_hal_rcc.c ****   *          This file provides firmware functions to manage the following
   7:Drivers/STM32H7xx_HAL_Driver/Src/stm32h7xx_hal_rcc.c ****   *          functionalities of the Reset and Clock Control (RCC) peripheral:
   8:Drivers/STM32H7xx_HAL_Driver/Src/stm32h7xx_hal_rcc.c ****   *           + Initialization and de-initialization functions
   9:Drivers/STM32H7xx_HAL_Driver/Src/stm32h7xx_hal_rcc.c ****   *           + Peripheral Control functions
  10:Drivers/STM32H7xx_HAL_Driver/Src/stm32h7xx_hal_rcc.c ****   *
  11:Drivers/STM32H7xx_HAL_Driver/Src/stm32h7xx_hal_rcc.c ****   @verbatim
  12:Drivers/STM32H7xx_HAL_Driver/Src/stm32h7xx_hal_rcc.c ****   ==============================================================================
  13:Drivers/STM32H7xx_HAL_Driver/Src/stm32h7xx_hal_rcc.c ****                       ##### RCC specific features #####
  14:Drivers/STM32H7xx_HAL_Driver/Src/stm32h7xx_hal_rcc.c ****   ==============================================================================
  15:Drivers/STM32H7xx_HAL_Driver/Src/stm32h7xx_hal_rcc.c ****     [..]
  16:Drivers/STM32H7xx_HAL_Driver/Src/stm32h7xx_hal_rcc.c ****       After reset the device is running from Internal High Speed oscillator
  17:Drivers/STM32H7xx_HAL_Driver/Src/stm32h7xx_hal_rcc.c ****       (HSI 64MHz) with Flash 0 wait state,and all peripherals are off except
  18:Drivers/STM32H7xx_HAL_Driver/Src/stm32h7xx_hal_rcc.c ****       internal SRAM, Flash, JTAG and PWR
  19:Drivers/STM32H7xx_HAL_Driver/Src/stm32h7xx_hal_rcc.c ****       (+) There is no pre-scaler on High speed (AHB) and Low speed (APB) buses;
  20:Drivers/STM32H7xx_HAL_Driver/Src/stm32h7xx_hal_rcc.c ****           all peripherals mapped on these buses are running at HSI speed.
  21:Drivers/STM32H7xx_HAL_Driver/Src/stm32h7xx_hal_rcc.c ****       (+) The clock for all peripherals is switched off, except the SRAM and FLASH.
  22:Drivers/STM32H7xx_HAL_Driver/Src/stm32h7xx_hal_rcc.c ****       (+) All GPIOs are in analogue mode , except the JTAG pins which
  23:Drivers/STM32H7xx_HAL_Driver/Src/stm32h7xx_hal_rcc.c ****           are assigned to be used for debug purpose.
  24:Drivers/STM32H7xx_HAL_Driver/Src/stm32h7xx_hal_rcc.c **** 
  25:Drivers/STM32H7xx_HAL_Driver/Src/stm32h7xx_hal_rcc.c ****     [..]
  26:Drivers/STM32H7xx_HAL_Driver/Src/stm32h7xx_hal_rcc.c ****       Once the device started from reset, the user application has to:
  27:Drivers/STM32H7xx_HAL_Driver/Src/stm32h7xx_hal_rcc.c ****       (+) Configure the clock source to be used to drive the System clock
  28:Drivers/STM32H7xx_HAL_Driver/Src/stm32h7xx_hal_rcc.c ****           (if the application needs higher frequency/performance)
  29:Drivers/STM32H7xx_HAL_Driver/Src/stm32h7xx_hal_rcc.c ****       (+) Configure the System clock frequency and Flash settings
  30:Drivers/STM32H7xx_HAL_Driver/Src/stm32h7xx_hal_rcc.c ****       (+) Configure the AHB and APB buses pre-scalers
ARM GAS  /tmp/ccLdxC59.s 			page 2


  31:Drivers/STM32H7xx_HAL_Driver/Src/stm32h7xx_hal_rcc.c ****       (+) Enable the clock for the peripheral(s) to be used
  32:Drivers/STM32H7xx_HAL_Driver/Src/stm32h7xx_hal_rcc.c ****       (+) Configure the clock kernel source(s) for peripherals which clocks are not
  33:Drivers/STM32H7xx_HAL_Driver/Src/stm32h7xx_hal_rcc.c ****           derived from the System clock through :RCC_D1CCIPR,RCC_D2CCIP1R,RCC_D2CCIP2R
  34:Drivers/STM32H7xx_HAL_Driver/Src/stm32h7xx_hal_rcc.c ****           and RCC_D3CCIPR registers
  35:Drivers/STM32H7xx_HAL_Driver/Src/stm32h7xx_hal_rcc.c **** 
  36:Drivers/STM32H7xx_HAL_Driver/Src/stm32h7xx_hal_rcc.c ****                       ##### RCC Limitations #####
  37:Drivers/STM32H7xx_HAL_Driver/Src/stm32h7xx_hal_rcc.c ****   ==============================================================================
  38:Drivers/STM32H7xx_HAL_Driver/Src/stm32h7xx_hal_rcc.c ****     [..]
  39:Drivers/STM32H7xx_HAL_Driver/Src/stm32h7xx_hal_rcc.c ****       A delay between an RCC peripheral clock enable and the effective peripheral
  40:Drivers/STM32H7xx_HAL_Driver/Src/stm32h7xx_hal_rcc.c ****       enabling should be taken into account in order to manage the peripheral read/write
  41:Drivers/STM32H7xx_HAL_Driver/Src/stm32h7xx_hal_rcc.c ****       from/to registers.
  42:Drivers/STM32H7xx_HAL_Driver/Src/stm32h7xx_hal_rcc.c ****       (+) This delay depends on the peripheral mapping.
  43:Drivers/STM32H7xx_HAL_Driver/Src/stm32h7xx_hal_rcc.c ****       (+) If peripheral is mapped on AHB: the delay is 2 AHB clock cycle
  44:Drivers/STM32H7xx_HAL_Driver/Src/stm32h7xx_hal_rcc.c ****           after the clock enable bit is set on the hardware register
  45:Drivers/STM32H7xx_HAL_Driver/Src/stm32h7xx_hal_rcc.c ****       (+) If peripheral is mapped on APB: the delay is 2 APB clock cycle
  46:Drivers/STM32H7xx_HAL_Driver/Src/stm32h7xx_hal_rcc.c ****           after the clock enable bit is set on the hardware register
  47:Drivers/STM32H7xx_HAL_Driver/Src/stm32h7xx_hal_rcc.c **** 
  48:Drivers/STM32H7xx_HAL_Driver/Src/stm32h7xx_hal_rcc.c ****     [..]
  49:Drivers/STM32H7xx_HAL_Driver/Src/stm32h7xx_hal_rcc.c ****       Implemented Workaround:
  50:Drivers/STM32H7xx_HAL_Driver/Src/stm32h7xx_hal_rcc.c ****       (+) For AHB & APB peripherals, a dummy read to the peripheral register has been
  51:Drivers/STM32H7xx_HAL_Driver/Src/stm32h7xx_hal_rcc.c ****           inserted in each __HAL_RCC_PPP_CLK_ENABLE() macro.
  52:Drivers/STM32H7xx_HAL_Driver/Src/stm32h7xx_hal_rcc.c **** 
  53:Drivers/STM32H7xx_HAL_Driver/Src/stm32h7xx_hal_rcc.c ****   @endverbatim
  54:Drivers/STM32H7xx_HAL_Driver/Src/stm32h7xx_hal_rcc.c ****  ******************************************************************************
  55:Drivers/STM32H7xx_HAL_Driver/Src/stm32h7xx_hal_rcc.c ****   * @attention
  56:Drivers/STM32H7xx_HAL_Driver/Src/stm32h7xx_hal_rcc.c ****   *
  57:Drivers/STM32H7xx_HAL_Driver/Src/stm32h7xx_hal_rcc.c ****   * <h2><center>&copy; COPYRIGHT(c) 2017 STMicroelectronics.
  58:Drivers/STM32H7xx_HAL_Driver/Src/stm32h7xx_hal_rcc.c ****   * All rights reserved.</center></h2>
  59:Drivers/STM32H7xx_HAL_Driver/Src/stm32h7xx_hal_rcc.c ****   *
  60:Drivers/STM32H7xx_HAL_Driver/Src/stm32h7xx_hal_rcc.c ****   * This software component is licensed by ST under BSD 3-Clause license,
  61:Drivers/STM32H7xx_HAL_Driver/Src/stm32h7xx_hal_rcc.c ****   * the "License"; You may not use this file except in compliance with the
  62:Drivers/STM32H7xx_HAL_Driver/Src/stm32h7xx_hal_rcc.c ****   * License. You may obtain a copy of the License at:
  63:Drivers/STM32H7xx_HAL_Driver/Src/stm32h7xx_hal_rcc.c ****   *                        opensource.org/licenses/BSD-3-Clause
  64:Drivers/STM32H7xx_HAL_Driver/Src/stm32h7xx_hal_rcc.c ****   *
  65:Drivers/STM32H7xx_HAL_Driver/Src/stm32h7xx_hal_rcc.c ****   ******************************************************************************
  66:Drivers/STM32H7xx_HAL_Driver/Src/stm32h7xx_hal_rcc.c ****   */
  67:Drivers/STM32H7xx_HAL_Driver/Src/stm32h7xx_hal_rcc.c **** 
  68:Drivers/STM32H7xx_HAL_Driver/Src/stm32h7xx_hal_rcc.c **** /* Includes ------------------------------------------------------------------*/
  69:Drivers/STM32H7xx_HAL_Driver/Src/stm32h7xx_hal_rcc.c **** #include "stm32h7xx_hal.h"
  70:Drivers/STM32H7xx_HAL_Driver/Src/stm32h7xx_hal_rcc.c **** 
  71:Drivers/STM32H7xx_HAL_Driver/Src/stm32h7xx_hal_rcc.c **** /** @addtogroup STM32H7xx_HAL_Driver
  72:Drivers/STM32H7xx_HAL_Driver/Src/stm32h7xx_hal_rcc.c ****   * @{
  73:Drivers/STM32H7xx_HAL_Driver/Src/stm32h7xx_hal_rcc.c ****   */
  74:Drivers/STM32H7xx_HAL_Driver/Src/stm32h7xx_hal_rcc.c **** 
  75:Drivers/STM32H7xx_HAL_Driver/Src/stm32h7xx_hal_rcc.c **** /** @defgroup RCC  RCC
  76:Drivers/STM32H7xx_HAL_Driver/Src/stm32h7xx_hal_rcc.c ****   * @brief RCC HAL module driver
  77:Drivers/STM32H7xx_HAL_Driver/Src/stm32h7xx_hal_rcc.c ****   * @{
  78:Drivers/STM32H7xx_HAL_Driver/Src/stm32h7xx_hal_rcc.c ****   */
  79:Drivers/STM32H7xx_HAL_Driver/Src/stm32h7xx_hal_rcc.c **** 
  80:Drivers/STM32H7xx_HAL_Driver/Src/stm32h7xx_hal_rcc.c **** #ifdef HAL_RCC_MODULE_ENABLED
  81:Drivers/STM32H7xx_HAL_Driver/Src/stm32h7xx_hal_rcc.c **** 
  82:Drivers/STM32H7xx_HAL_Driver/Src/stm32h7xx_hal_rcc.c **** /* Private typedef -----------------------------------------------------------*/
  83:Drivers/STM32H7xx_HAL_Driver/Src/stm32h7xx_hal_rcc.c **** /* Private define ------------------------------------------------------------*/
  84:Drivers/STM32H7xx_HAL_Driver/Src/stm32h7xx_hal_rcc.c **** /* Private macro -------------------------------------------------------------*/
  85:Drivers/STM32H7xx_HAL_Driver/Src/stm32h7xx_hal_rcc.c **** /** @defgroup RCC_Private_Macros RCC Private Macros
  86:Drivers/STM32H7xx_HAL_Driver/Src/stm32h7xx_hal_rcc.c ****   * @{
  87:Drivers/STM32H7xx_HAL_Driver/Src/stm32h7xx_hal_rcc.c ****   */
ARM GAS  /tmp/ccLdxC59.s 			page 3


  88:Drivers/STM32H7xx_HAL_Driver/Src/stm32h7xx_hal_rcc.c **** #define MCO1_CLK_ENABLE()     __HAL_RCC_GPIOA_CLK_ENABLE()
  89:Drivers/STM32H7xx_HAL_Driver/Src/stm32h7xx_hal_rcc.c **** #define MCO1_GPIO_PORT        GPIOA
  90:Drivers/STM32H7xx_HAL_Driver/Src/stm32h7xx_hal_rcc.c **** #define MCO1_PIN              GPIO_PIN_8
  91:Drivers/STM32H7xx_HAL_Driver/Src/stm32h7xx_hal_rcc.c **** 
  92:Drivers/STM32H7xx_HAL_Driver/Src/stm32h7xx_hal_rcc.c **** #define MCO2_CLK_ENABLE()      __HAL_RCC_GPIOC_CLK_ENABLE()
  93:Drivers/STM32H7xx_HAL_Driver/Src/stm32h7xx_hal_rcc.c **** #define MCO2_GPIO_PORT         GPIOC
  94:Drivers/STM32H7xx_HAL_Driver/Src/stm32h7xx_hal_rcc.c **** #define MCO2_PIN               GPIO_PIN_9
  95:Drivers/STM32H7xx_HAL_Driver/Src/stm32h7xx_hal_rcc.c **** 
  96:Drivers/STM32H7xx_HAL_Driver/Src/stm32h7xx_hal_rcc.c **** /**
  97:Drivers/STM32H7xx_HAL_Driver/Src/stm32h7xx_hal_rcc.c ****   * @}
  98:Drivers/STM32H7xx_HAL_Driver/Src/stm32h7xx_hal_rcc.c ****   */
  99:Drivers/STM32H7xx_HAL_Driver/Src/stm32h7xx_hal_rcc.c **** /* Private variables ---------------------------------------------------------*/
 100:Drivers/STM32H7xx_HAL_Driver/Src/stm32h7xx_hal_rcc.c **** /** @defgroup RCC_Private_Variables RCC Private Variables
 101:Drivers/STM32H7xx_HAL_Driver/Src/stm32h7xx_hal_rcc.c ****   * @{
 102:Drivers/STM32H7xx_HAL_Driver/Src/stm32h7xx_hal_rcc.c ****   */
 103:Drivers/STM32H7xx_HAL_Driver/Src/stm32h7xx_hal_rcc.c **** 
 104:Drivers/STM32H7xx_HAL_Driver/Src/stm32h7xx_hal_rcc.c **** /**
 105:Drivers/STM32H7xx_HAL_Driver/Src/stm32h7xx_hal_rcc.c ****   * @}
 106:Drivers/STM32H7xx_HAL_Driver/Src/stm32h7xx_hal_rcc.c ****   */
 107:Drivers/STM32H7xx_HAL_Driver/Src/stm32h7xx_hal_rcc.c **** /* Private function prototypes -----------------------------------------------*/
 108:Drivers/STM32H7xx_HAL_Driver/Src/stm32h7xx_hal_rcc.c **** /* Exported functions --------------------------------------------------------*/
 109:Drivers/STM32H7xx_HAL_Driver/Src/stm32h7xx_hal_rcc.c **** 
 110:Drivers/STM32H7xx_HAL_Driver/Src/stm32h7xx_hal_rcc.c **** /** @defgroup RCC_Exported_Functions RCC Exported Functions
 111:Drivers/STM32H7xx_HAL_Driver/Src/stm32h7xx_hal_rcc.c ****   * @{
 112:Drivers/STM32H7xx_HAL_Driver/Src/stm32h7xx_hal_rcc.c ****   */
 113:Drivers/STM32H7xx_HAL_Driver/Src/stm32h7xx_hal_rcc.c **** 
 114:Drivers/STM32H7xx_HAL_Driver/Src/stm32h7xx_hal_rcc.c **** /** @defgroup RCC_Exported_Functions_Group1 Initialization and de-initialization functions
 115:Drivers/STM32H7xx_HAL_Driver/Src/stm32h7xx_hal_rcc.c ****  *  @brief    Initialization and Configuration functions
 116:Drivers/STM32H7xx_HAL_Driver/Src/stm32h7xx_hal_rcc.c ****  *
 117:Drivers/STM32H7xx_HAL_Driver/Src/stm32h7xx_hal_rcc.c **** @verbatim
 118:Drivers/STM32H7xx_HAL_Driver/Src/stm32h7xx_hal_rcc.c ****  ===============================================================================
 119:Drivers/STM32H7xx_HAL_Driver/Src/stm32h7xx_hal_rcc.c ****            ##### Initialization and de-initialization functions #####
 120:Drivers/STM32H7xx_HAL_Driver/Src/stm32h7xx_hal_rcc.c ****  ===============================================================================
 121:Drivers/STM32H7xx_HAL_Driver/Src/stm32h7xx_hal_rcc.c ****     [..]
 122:Drivers/STM32H7xx_HAL_Driver/Src/stm32h7xx_hal_rcc.c ****       This section provides functions allowing to configure the internal/external oscillators
 123:Drivers/STM32H7xx_HAL_Driver/Src/stm32h7xx_hal_rcc.c ****       (HSE, HSI, LSE,CSI, LSI,HSI48, PLL, CSS and MCO) and the System buses clocks (SYSCLK, AHB3, A
 124:Drivers/STM32H7xx_HAL_Driver/Src/stm32h7xx_hal_rcc.c ****        AHB2,AHB4,APB3, APB1L, APB1H, APB2, and APB4).
 125:Drivers/STM32H7xx_HAL_Driver/Src/stm32h7xx_hal_rcc.c **** 
 126:Drivers/STM32H7xx_HAL_Driver/Src/stm32h7xx_hal_rcc.c ****     [..] Internal/external clock and PLL configuration
 127:Drivers/STM32H7xx_HAL_Driver/Src/stm32h7xx_hal_rcc.c ****          (#) HSI (high-speed internal), 64 MHz factory-trimmed RC used directly or through
 128:Drivers/STM32H7xx_HAL_Driver/Src/stm32h7xx_hal_rcc.c ****              the PLL as System clock source.
 129:Drivers/STM32H7xx_HAL_Driver/Src/stm32h7xx_hal_rcc.c ****          (#) CSI is a low-power RC oscillator which can be used directly as system clock, periphera
 130:Drivers/STM32H7xx_HAL_Driver/Src/stm32h7xx_hal_rcc.c ****              clock, or PLL input.But even with frequency calibration, is less accurate than an
 131:Drivers/STM32H7xx_HAL_Driver/Src/stm32h7xx_hal_rcc.c ****              external crystal oscillator or ceramic resonator.
 132:Drivers/STM32H7xx_HAL_Driver/Src/stm32h7xx_hal_rcc.c ****          (#) LSI (low-speed internal), 32 KHz low consumption RC used as IWDG and/or RTC
 133:Drivers/STM32H7xx_HAL_Driver/Src/stm32h7xx_hal_rcc.c ****              clock source.
 134:Drivers/STM32H7xx_HAL_Driver/Src/stm32h7xx_hal_rcc.c **** 
 135:Drivers/STM32H7xx_HAL_Driver/Src/stm32h7xx_hal_rcc.c ****          (#) HSE (high-speed external), 4 to 48 MHz crystal oscillator used directly or
 136:Drivers/STM32H7xx_HAL_Driver/Src/stm32h7xx_hal_rcc.c ****              through the PLL as System clock source. Can be used also as RTC clock source.
 137:Drivers/STM32H7xx_HAL_Driver/Src/stm32h7xx_hal_rcc.c **** 
 138:Drivers/STM32H7xx_HAL_Driver/Src/stm32h7xx_hal_rcc.c ****          (#) LSE (low-speed external), 32 KHz oscillator used as RTC clock source.
 139:Drivers/STM32H7xx_HAL_Driver/Src/stm32h7xx_hal_rcc.c **** 
 140:Drivers/STM32H7xx_HAL_Driver/Src/stm32h7xx_hal_rcc.c ****          (#) PLL , The RCC features three independent PLLs (clocked by HSI , HSE or CSI),
 141:Drivers/STM32H7xx_HAL_Driver/Src/stm32h7xx_hal_rcc.c ****              featuring three different output clocks and able  to work either in integer or Fractio
 142:Drivers/STM32H7xx_HAL_Driver/Src/stm32h7xx_hal_rcc.c ****            (++) A main PLL, PLL1, which is generally used to provide clocks to the CPU
 143:Drivers/STM32H7xx_HAL_Driver/Src/stm32h7xx_hal_rcc.c ****                 and to some peripherals.
 144:Drivers/STM32H7xx_HAL_Driver/Src/stm32h7xx_hal_rcc.c ****            (++) Two dedicated PLLs, PLL2 and PLL3, which are used to generate the kernel clock for 
ARM GAS  /tmp/ccLdxC59.s 			page 4


 145:Drivers/STM32H7xx_HAL_Driver/Src/stm32h7xx_hal_rcc.c **** 
 146:Drivers/STM32H7xx_HAL_Driver/Src/stm32h7xx_hal_rcc.c **** 
 147:Drivers/STM32H7xx_HAL_Driver/Src/stm32h7xx_hal_rcc.c ****          (#) CSS (Clock security system), once enabled and if a HSE clock failure occurs
 148:Drivers/STM32H7xx_HAL_Driver/Src/stm32h7xx_hal_rcc.c ****             (HSE used directly or through PLL as System clock source), the System clock
 149:Drivers/STM32H7xx_HAL_Driver/Src/stm32h7xx_hal_rcc.c ****              is automatically switched to HSI and an interrupt is generated if enabled.
 150:Drivers/STM32H7xx_HAL_Driver/Src/stm32h7xx_hal_rcc.c ****              The interrupt is linked to the Cortex-M NMI (Non-Mask-able Interrupt)
 151:Drivers/STM32H7xx_HAL_Driver/Src/stm32h7xx_hal_rcc.c ****              exception vector.
 152:Drivers/STM32H7xx_HAL_Driver/Src/stm32h7xx_hal_rcc.c **** 
 153:Drivers/STM32H7xx_HAL_Driver/Src/stm32h7xx_hal_rcc.c ****          (#) MCO1 (micro controller clock output), used to output HSI, LSE, HSE, PLL1(PLL1_Q)
 154:Drivers/STM32H7xx_HAL_Driver/Src/stm32h7xx_hal_rcc.c ****              or HSI48 clock (through a configurable pre-scaler) on PA8 pin.
 155:Drivers/STM32H7xx_HAL_Driver/Src/stm32h7xx_hal_rcc.c **** 
 156:Drivers/STM32H7xx_HAL_Driver/Src/stm32h7xx_hal_rcc.c ****          (#) MCO2 (micro controller clock output), used to output HSE, PLL2(PLL2_P), SYSCLK,
 157:Drivers/STM32H7xx_HAL_Driver/Src/stm32h7xx_hal_rcc.c ****              LSI, CSI, or PLL1(PLL1_P) clock (through a configurable pre-scaler) on PC9 pin.
 158:Drivers/STM32H7xx_HAL_Driver/Src/stm32h7xx_hal_rcc.c **** 
 159:Drivers/STM32H7xx_HAL_Driver/Src/stm32h7xx_hal_rcc.c ****     [..] System, AHB and APB buses clocks configuration
 160:Drivers/STM32H7xx_HAL_Driver/Src/stm32h7xx_hal_rcc.c ****          (#) Several clock sources can be used to drive the System clock (SYSCLK): CSI,HSI,
 161:Drivers/STM32H7xx_HAL_Driver/Src/stm32h7xx_hal_rcc.c ****              HSE and PLL.
 162:Drivers/STM32H7xx_HAL_Driver/Src/stm32h7xx_hal_rcc.c ****              The AHB clock (HCLK) is derived from System core clock through configurable
 163:Drivers/STM32H7xx_HAL_Driver/Src/stm32h7xx_hal_rcc.c ****              pre-scaler and used to clock the CPU, memory and peripherals mapped
 164:Drivers/STM32H7xx_HAL_Driver/Src/stm32h7xx_hal_rcc.c ****              on AHB and APB bus of the 3 Domains (D1, D2, D3)* through configurable pre-scalers
 165:Drivers/STM32H7xx_HAL_Driver/Src/stm32h7xx_hal_rcc.c ****              and used to clock the peripherals mapped on these buses. You can use
 166:Drivers/STM32H7xx_HAL_Driver/Src/stm32h7xx_hal_rcc.c ****              "HAL_RCC_GetSysClockFreq()" function to retrieve system clock frequency.
 167:Drivers/STM32H7xx_HAL_Driver/Src/stm32h7xx_hal_rcc.c **** 
 168:Drivers/STM32H7xx_HAL_Driver/Src/stm32h7xx_hal_rcc.c ****          -@- All the peripheral clocks are derived from the System clock (SYSCLK) except those
 169:Drivers/STM32H7xx_HAL_Driver/Src/stm32h7xx_hal_rcc.c ****              with dual clock domain where kernel source clock could be selected through
 170:Drivers/STM32H7xx_HAL_Driver/Src/stm32h7xx_hal_rcc.c ****              RCC_D1CCIPR,RCC_D2CCIP1R,RCC_D2CCIP2R and RCC_D3CCIPR registers.
 171:Drivers/STM32H7xx_HAL_Driver/Src/stm32h7xx_hal_rcc.c **** 
 172:Drivers/STM32H7xx_HAL_Driver/Src/stm32h7xx_hal_rcc.c ****      (*) : 2 Domains (CD and SRD) for stm32h7a3xx and stm32h7b3xx family lines.
 173:Drivers/STM32H7xx_HAL_Driver/Src/stm32h7xx_hal_rcc.c **** @endverbatim
 174:Drivers/STM32H7xx_HAL_Driver/Src/stm32h7xx_hal_rcc.c ****   * @{
 175:Drivers/STM32H7xx_HAL_Driver/Src/stm32h7xx_hal_rcc.c ****   */
 176:Drivers/STM32H7xx_HAL_Driver/Src/stm32h7xx_hal_rcc.c **** 
 177:Drivers/STM32H7xx_HAL_Driver/Src/stm32h7xx_hal_rcc.c **** /**
 178:Drivers/STM32H7xx_HAL_Driver/Src/stm32h7xx_hal_rcc.c ****   * @brief  Resets the RCC clock configuration to the default reset state.
 179:Drivers/STM32H7xx_HAL_Driver/Src/stm32h7xx_hal_rcc.c ****   * @note   The default reset state of the clock configuration is given below:
 180:Drivers/STM32H7xx_HAL_Driver/Src/stm32h7xx_hal_rcc.c ****   *            - HSI ON and used as system clock source
 181:Drivers/STM32H7xx_HAL_Driver/Src/stm32h7xx_hal_rcc.c ****   *            - HSE, PLL1, PLL2 and PLL3 OFF
 182:Drivers/STM32H7xx_HAL_Driver/Src/stm32h7xx_hal_rcc.c ****   *            - AHB, APB Bus pre-scaler set to 1.
 183:Drivers/STM32H7xx_HAL_Driver/Src/stm32h7xx_hal_rcc.c ****   *            - CSS, MCO1 and MCO2 OFF
 184:Drivers/STM32H7xx_HAL_Driver/Src/stm32h7xx_hal_rcc.c ****   *            - All interrupts disabled
 185:Drivers/STM32H7xx_HAL_Driver/Src/stm32h7xx_hal_rcc.c ****   * @note   This function doesn't modify the configuration of the
 186:Drivers/STM32H7xx_HAL_Driver/Src/stm32h7xx_hal_rcc.c ****   *            - Peripheral clocks
 187:Drivers/STM32H7xx_HAL_Driver/Src/stm32h7xx_hal_rcc.c ****   *            - LSI, LSE and RTC clocks
 188:Drivers/STM32H7xx_HAL_Driver/Src/stm32h7xx_hal_rcc.c ****   * @retval HAL status
 189:Drivers/STM32H7xx_HAL_Driver/Src/stm32h7xx_hal_rcc.c ****   */
 190:Drivers/STM32H7xx_HAL_Driver/Src/stm32h7xx_hal_rcc.c **** HAL_StatusTypeDef HAL_RCC_DeInit(void)
 191:Drivers/STM32H7xx_HAL_Driver/Src/stm32h7xx_hal_rcc.c **** {
  29              		.loc 1 191 1 view -0
  30              		.cfi_startproc
  31              		@ args = 0, pretend = 0, frame = 0
  32              		@ frame_needed = 0, uses_anonymous_args = 0
 192:Drivers/STM32H7xx_HAL_Driver/Src/stm32h7xx_hal_rcc.c ****   uint32_t tickstart;
  33              		.loc 1 192 3 view .LVU1
 193:Drivers/STM32H7xx_HAL_Driver/Src/stm32h7xx_hal_rcc.c **** 
 194:Drivers/STM32H7xx_HAL_Driver/Src/stm32h7xx_hal_rcc.c ****         /* Increasing the CPU frequency */
 195:Drivers/STM32H7xx_HAL_Driver/Src/stm32h7xx_hal_rcc.c ****   if(FLASH_LATENCY_DEFAULT  > __HAL_FLASH_GET_LATENCY())
  34              		.loc 1 195 3 view .LVU2
ARM GAS  /tmp/ccLdxC59.s 			page 5


  35              		.loc 1 195 31 is_stmt 0 view .LVU3
  36 0000 5E4A     		ldr	r2, .L29
 191:Drivers/STM32H7xx_HAL_Driver/Src/stm32h7xx_hal_rcc.c ****   uint32_t tickstart;
  37              		.loc 1 191 1 view .LVU4
  38 0002 F8B5     		push	{r3, r4, r5, r6, r7, lr}
  39              	.LCFI0:
  40              		.cfi_def_cfa_offset 24
  41              		.cfi_offset 3, -24
  42              		.cfi_offset 4, -20
  43              		.cfi_offset 5, -16
  44              		.cfi_offset 6, -12
  45              		.cfi_offset 7, -8
  46              		.cfi_offset 14, -4
  47              		.loc 1 195 31 view .LVU5
  48 0004 1368     		ldr	r3, [r2]
  49 0006 03F00F03 		and	r3, r3, #15
  50              		.loc 1 195 5 view .LVU6
  51 000a 062B     		cmp	r3, #6
  52 000c 0AD8     		bhi	.L4
 196:Drivers/STM32H7xx_HAL_Driver/Src/stm32h7xx_hal_rcc.c ****   {
 197:Drivers/STM32H7xx_HAL_Driver/Src/stm32h7xx_hal_rcc.c ****     /* Program the new number of wait states to the LATENCY bits in the FLASH_ACR register */
 198:Drivers/STM32H7xx_HAL_Driver/Src/stm32h7xx_hal_rcc.c ****     __HAL_FLASH_SET_LATENCY(FLASH_LATENCY_DEFAULT);
  53              		.loc 1 198 5 is_stmt 1 view .LVU7
  54 000e 1368     		ldr	r3, [r2]
  55 0010 23F00F03 		bic	r3, r3, #15
  56 0014 43F00703 		orr	r3, r3, #7
  57 0018 1360     		str	r3, [r2]
 199:Drivers/STM32H7xx_HAL_Driver/Src/stm32h7xx_hal_rcc.c **** 
 200:Drivers/STM32H7xx_HAL_Driver/Src/stm32h7xx_hal_rcc.c ****     /* Check that the new number of wait states is taken into account to access the Flash
 201:Drivers/STM32H7xx_HAL_Driver/Src/stm32h7xx_hal_rcc.c ****     memory by reading the FLASH_ACR register */
 202:Drivers/STM32H7xx_HAL_Driver/Src/stm32h7xx_hal_rcc.c ****     if(__HAL_FLASH_GET_LATENCY() != FLASH_LATENCY_DEFAULT)
  58              		.loc 1 202 5 view .LVU8
  59              		.loc 1 202 8 is_stmt 0 view .LVU9
  60 001a 1368     		ldr	r3, [r2]
  61 001c 03F00F03 		and	r3, r3, #15
  62              		.loc 1 202 7 view .LVU10
  63 0020 072B     		cmp	r3, #7
  64 0022 22D1     		bne	.L7
  65              	.L4:
 203:Drivers/STM32H7xx_HAL_Driver/Src/stm32h7xx_hal_rcc.c ****     {
 204:Drivers/STM32H7xx_HAL_Driver/Src/stm32h7xx_hal_rcc.c ****       return HAL_ERROR;
 205:Drivers/STM32H7xx_HAL_Driver/Src/stm32h7xx_hal_rcc.c ****     }
 206:Drivers/STM32H7xx_HAL_Driver/Src/stm32h7xx_hal_rcc.c **** 
 207:Drivers/STM32H7xx_HAL_Driver/Src/stm32h7xx_hal_rcc.c ****   }
 208:Drivers/STM32H7xx_HAL_Driver/Src/stm32h7xx_hal_rcc.c **** 
 209:Drivers/STM32H7xx_HAL_Driver/Src/stm32h7xx_hal_rcc.c **** 
 210:Drivers/STM32H7xx_HAL_Driver/Src/stm32h7xx_hal_rcc.c ****   /* Get Start Tick */
 211:Drivers/STM32H7xx_HAL_Driver/Src/stm32h7xx_hal_rcc.c ****   tickstart = HAL_GetTick();
  66              		.loc 1 211 3 is_stmt 1 view .LVU11
  67              		.loc 1 211 15 is_stmt 0 view .LVU12
  68 0024 FFF7FEFF 		bl	HAL_GetTick
  69              	.LVL0:
 212:Drivers/STM32H7xx_HAL_Driver/Src/stm32h7xx_hal_rcc.c **** 
 213:Drivers/STM32H7xx_HAL_Driver/Src/stm32h7xx_hal_rcc.c ****   /* Set HSION bit */
 214:Drivers/STM32H7xx_HAL_Driver/Src/stm32h7xx_hal_rcc.c ****   SET_BIT(RCC->CR, RCC_CR_HSION);
  70              		.loc 1 214 3 view .LVU13
  71 0028 554B     		ldr	r3, .L29+4
ARM GAS  /tmp/ccLdxC59.s 			page 6


 211:Drivers/STM32H7xx_HAL_Driver/Src/stm32h7xx_hal_rcc.c **** 
  72              		.loc 1 211 15 view .LVU14
  73 002a 0546     		mov	r5, r0
  74              	.LVL1:
  75              		.loc 1 214 3 is_stmt 1 view .LVU15
  76 002c 1A68     		ldr	r2, [r3]
 215:Drivers/STM32H7xx_HAL_Driver/Src/stm32h7xx_hal_rcc.c **** 
 216:Drivers/STM32H7xx_HAL_Driver/Src/stm32h7xx_hal_rcc.c ****   /* Wait till HSI is ready */
 217:Drivers/STM32H7xx_HAL_Driver/Src/stm32h7xx_hal_rcc.c ****   while (READ_BIT(RCC->CR, RCC_CR_HSIRDY) == 0U)
  77              		.loc 1 217 10 is_stmt 0 view .LVU16
  78 002e 1C46     		mov	r4, r3
 214:Drivers/STM32H7xx_HAL_Driver/Src/stm32h7xx_hal_rcc.c **** 
  79              		.loc 1 214 3 view .LVU17
  80 0030 42F00102 		orr	r2, r2, #1
  81 0034 1A60     		str	r2, [r3]
  82              		.loc 1 217 3 is_stmt 1 view .LVU18
  83              		.loc 1 217 9 is_stmt 0 view .LVU19
  84 0036 04E0     		b	.L3
  85              	.LVL2:
  86              	.L6:
 218:Drivers/STM32H7xx_HAL_Driver/Src/stm32h7xx_hal_rcc.c ****   {
 219:Drivers/STM32H7xx_HAL_Driver/Src/stm32h7xx_hal_rcc.c ****     if ((HAL_GetTick() - tickstart) > HSI_TIMEOUT_VALUE)
  87              		.loc 1 219 10 view .LVU20
  88 0038 FFF7FEFF 		bl	HAL_GetTick
  89              	.LVL3:
  90              		.loc 1 219 24 view .LVU21
  91 003c 401B     		subs	r0, r0, r5
  92              		.loc 1 219 8 view .LVU22
  93 003e 0228     		cmp	r0, #2
  94 0040 16D8     		bhi	.L9
  95              	.L3:
  96              		.loc 1 219 5 is_stmt 1 view .LVU23
 217:Drivers/STM32H7xx_HAL_Driver/Src/stm32h7xx_hal_rcc.c ****   {
  97              		.loc 1 217 9 view .LVU24
 217:Drivers/STM32H7xx_HAL_Driver/Src/stm32h7xx_hal_rcc.c ****   {
  98              		.loc 1 217 10 is_stmt 0 view .LVU25
  99 0042 2368     		ldr	r3, [r4]
 217:Drivers/STM32H7xx_HAL_Driver/Src/stm32h7xx_hal_rcc.c ****   {
 100              		.loc 1 217 9 view .LVU26
 101 0044 5E07     		lsls	r6, r3, #29
 102 0046 F7D5     		bpl	.L6
 220:Drivers/STM32H7xx_HAL_Driver/Src/stm32h7xx_hal_rcc.c ****     {
 221:Drivers/STM32H7xx_HAL_Driver/Src/stm32h7xx_hal_rcc.c ****       return HAL_TIMEOUT;
 222:Drivers/STM32H7xx_HAL_Driver/Src/stm32h7xx_hal_rcc.c ****     }
 223:Drivers/STM32H7xx_HAL_Driver/Src/stm32h7xx_hal_rcc.c ****   }
 224:Drivers/STM32H7xx_HAL_Driver/Src/stm32h7xx_hal_rcc.c **** 
 225:Drivers/STM32H7xx_HAL_Driver/Src/stm32h7xx_hal_rcc.c ****   /* Set HSITRIM[6:0] bits to the reset value */
 226:Drivers/STM32H7xx_HAL_Driver/Src/stm32h7xx_hal_rcc.c ****   SET_BIT(RCC->HSICFGR, RCC_HSICFGR_HSITRIM_6);
 103              		.loc 1 226 3 is_stmt 1 view .LVU27
 104 0048 6368     		ldr	r3, [r4, #4]
 227:Drivers/STM32H7xx_HAL_Driver/Src/stm32h7xx_hal_rcc.c **** 
 228:Drivers/STM32H7xx_HAL_Driver/Src/stm32h7xx_hal_rcc.c ****   /* Reset CFGR register */
 229:Drivers/STM32H7xx_HAL_Driver/Src/stm32h7xx_hal_rcc.c ****   CLEAR_REG(RCC->CFGR);
 105              		.loc 1 229 3 is_stmt 0 view .LVU28
 106 004a 0025     		movs	r5, #0
 107              	.LVL4:
 230:Drivers/STM32H7xx_HAL_Driver/Src/stm32h7xx_hal_rcc.c **** 
ARM GAS  /tmp/ccLdxC59.s 			page 7


 231:Drivers/STM32H7xx_HAL_Driver/Src/stm32h7xx_hal_rcc.c ****   /* Update the SystemCoreClock and SystemD2Clock global variables */
 232:Drivers/STM32H7xx_HAL_Driver/Src/stm32h7xx_hal_rcc.c ****   SystemCoreClock = HSI_VALUE;
 233:Drivers/STM32H7xx_HAL_Driver/Src/stm32h7xx_hal_rcc.c ****   SystemD2Clock = HSI_VALUE;
 234:Drivers/STM32H7xx_HAL_Driver/Src/stm32h7xx_hal_rcc.c **** 
 235:Drivers/STM32H7xx_HAL_Driver/Src/stm32h7xx_hal_rcc.c ****   /* Adapt Systick interrupt period */
 236:Drivers/STM32H7xx_HAL_Driver/Src/stm32h7xx_hal_rcc.c ****   if(HAL_InitTick(uwTickPrio) != HAL_OK)
 108              		.loc 1 236 6 view .LVU29
 109 004c 4D48     		ldr	r0, .L29+8
 226:Drivers/STM32H7xx_HAL_Driver/Src/stm32h7xx_hal_rcc.c **** 
 110              		.loc 1 226 3 view .LVU30
 111 004e 43F08043 		orr	r3, r3, #1073741824
 232:Drivers/STM32H7xx_HAL_Driver/Src/stm32h7xx_hal_rcc.c ****   SystemD2Clock = HSI_VALUE;
 112              		.loc 1 232 19 view .LVU31
 113 0052 4D4A     		ldr	r2, .L29+12
 114 0054 4D49     		ldr	r1, .L29+16
 226:Drivers/STM32H7xx_HAL_Driver/Src/stm32h7xx_hal_rcc.c **** 
 115              		.loc 1 226 3 view .LVU32
 116 0056 6360     		str	r3, [r4, #4]
 229:Drivers/STM32H7xx_HAL_Driver/Src/stm32h7xx_hal_rcc.c **** 
 117              		.loc 1 229 3 is_stmt 1 view .LVU33
 233:Drivers/STM32H7xx_HAL_Driver/Src/stm32h7xx_hal_rcc.c **** 
 118              		.loc 1 233 17 is_stmt 0 view .LVU34
 119 0058 4D4B     		ldr	r3, .L29+20
 229:Drivers/STM32H7xx_HAL_Driver/Src/stm32h7xx_hal_rcc.c **** 
 120              		.loc 1 229 3 view .LVU35
 121 005a 2561     		str	r5, [r4, #16]
 232:Drivers/STM32H7xx_HAL_Driver/Src/stm32h7xx_hal_rcc.c ****   SystemD2Clock = HSI_VALUE;
 122              		.loc 1 232 3 is_stmt 1 view .LVU36
 123              		.loc 1 236 6 is_stmt 0 view .LVU37
 124 005c 0068     		ldr	r0, [r0]
 232:Drivers/STM32H7xx_HAL_Driver/Src/stm32h7xx_hal_rcc.c ****   SystemD2Clock = HSI_VALUE;
 125              		.loc 1 232 19 view .LVU38
 126 005e 0A60     		str	r2, [r1]
 233:Drivers/STM32H7xx_HAL_Driver/Src/stm32h7xx_hal_rcc.c **** 
 127              		.loc 1 233 3 is_stmt 1 view .LVU39
 233:Drivers/STM32H7xx_HAL_Driver/Src/stm32h7xx_hal_rcc.c **** 
 128              		.loc 1 233 17 is_stmt 0 view .LVU40
 129 0060 1A60     		str	r2, [r3]
 130              		.loc 1 236 3 is_stmt 1 view .LVU41
 131              		.loc 1 236 6 is_stmt 0 view .LVU42
 132 0062 FFF7FEFF 		bl	HAL_InitTick
 133              	.LVL5:
 134              		.loc 1 236 5 view .LVU43
 135 0066 0446     		mov	r4, r0
 136 0068 28B1     		cbz	r0, .L28
 137              	.L7:
 204:Drivers/STM32H7xx_HAL_Driver/Src/stm32h7xx_hal_rcc.c ****     }
 138              		.loc 1 204 14 view .LVU44
 139 006a 0124     		movs	r4, #1
 140              	.L5:
 237:Drivers/STM32H7xx_HAL_Driver/Src/stm32h7xx_hal_rcc.c ****   {
 238:Drivers/STM32H7xx_HAL_Driver/Src/stm32h7xx_hal_rcc.c ****     return HAL_ERROR;
 239:Drivers/STM32H7xx_HAL_Driver/Src/stm32h7xx_hal_rcc.c ****   }
 240:Drivers/STM32H7xx_HAL_Driver/Src/stm32h7xx_hal_rcc.c **** 
 241:Drivers/STM32H7xx_HAL_Driver/Src/stm32h7xx_hal_rcc.c ****   /* Get Start Tick */
 242:Drivers/STM32H7xx_HAL_Driver/Src/stm32h7xx_hal_rcc.c ****   tickstart = HAL_GetTick();
 243:Drivers/STM32H7xx_HAL_Driver/Src/stm32h7xx_hal_rcc.c **** 
ARM GAS  /tmp/ccLdxC59.s 			page 8


 244:Drivers/STM32H7xx_HAL_Driver/Src/stm32h7xx_hal_rcc.c ****   /* Wait till clock switch is ready */
 245:Drivers/STM32H7xx_HAL_Driver/Src/stm32h7xx_hal_rcc.c ****   while (READ_BIT(RCC->CFGR, RCC_CFGR_SWS) != 0U)
 246:Drivers/STM32H7xx_HAL_Driver/Src/stm32h7xx_hal_rcc.c ****   {
 247:Drivers/STM32H7xx_HAL_Driver/Src/stm32h7xx_hal_rcc.c ****     if ((HAL_GetTick() - tickstart) > CLOCKSWITCH_TIMEOUT_VALUE)
 248:Drivers/STM32H7xx_HAL_Driver/Src/stm32h7xx_hal_rcc.c ****     {
 249:Drivers/STM32H7xx_HAL_Driver/Src/stm32h7xx_hal_rcc.c ****       return HAL_TIMEOUT;
 250:Drivers/STM32H7xx_HAL_Driver/Src/stm32h7xx_hal_rcc.c ****     }
 251:Drivers/STM32H7xx_HAL_Driver/Src/stm32h7xx_hal_rcc.c ****   }
 252:Drivers/STM32H7xx_HAL_Driver/Src/stm32h7xx_hal_rcc.c **** 
 253:Drivers/STM32H7xx_HAL_Driver/Src/stm32h7xx_hal_rcc.c ****   /* Get Start Tick */
 254:Drivers/STM32H7xx_HAL_Driver/Src/stm32h7xx_hal_rcc.c ****   tickstart = HAL_GetTick();
 255:Drivers/STM32H7xx_HAL_Driver/Src/stm32h7xx_hal_rcc.c **** 
 256:Drivers/STM32H7xx_HAL_Driver/Src/stm32h7xx_hal_rcc.c ****   /* Reset CSION, CSIKERON, HSEON, HSI48ON, HSECSSON, HSIDIV bits */
 257:Drivers/STM32H7xx_HAL_Driver/Src/stm32h7xx_hal_rcc.c ****   CLEAR_BIT(RCC->CR, RCC_CR_HSEON | RCC_CR_HSIKERON| RCC_CR_HSIDIV| RCC_CR_HSIDIVF| RCC_CR_CSION | 
 258:Drivers/STM32H7xx_HAL_Driver/Src/stm32h7xx_hal_rcc.c ****   | RCC_CR_HSI48ON | RCC_CR_CSSHSEON);
 259:Drivers/STM32H7xx_HAL_Driver/Src/stm32h7xx_hal_rcc.c **** 
 260:Drivers/STM32H7xx_HAL_Driver/Src/stm32h7xx_hal_rcc.c ****   /* Wait till HSE is disabled */
 261:Drivers/STM32H7xx_HAL_Driver/Src/stm32h7xx_hal_rcc.c ****   while (READ_BIT(RCC->CR, RCC_CR_HSERDY) != 0U)
 262:Drivers/STM32H7xx_HAL_Driver/Src/stm32h7xx_hal_rcc.c ****   {
 263:Drivers/STM32H7xx_HAL_Driver/Src/stm32h7xx_hal_rcc.c ****     if ((HAL_GetTick() - tickstart) > HSE_TIMEOUT_VALUE)
 264:Drivers/STM32H7xx_HAL_Driver/Src/stm32h7xx_hal_rcc.c ****     {
 265:Drivers/STM32H7xx_HAL_Driver/Src/stm32h7xx_hal_rcc.c ****       return HAL_TIMEOUT;
 266:Drivers/STM32H7xx_HAL_Driver/Src/stm32h7xx_hal_rcc.c ****     }
 267:Drivers/STM32H7xx_HAL_Driver/Src/stm32h7xx_hal_rcc.c ****   }
 268:Drivers/STM32H7xx_HAL_Driver/Src/stm32h7xx_hal_rcc.c **** 
 269:Drivers/STM32H7xx_HAL_Driver/Src/stm32h7xx_hal_rcc.c ****   /* Get Start Tick */
 270:Drivers/STM32H7xx_HAL_Driver/Src/stm32h7xx_hal_rcc.c ****   tickstart = HAL_GetTick();
 271:Drivers/STM32H7xx_HAL_Driver/Src/stm32h7xx_hal_rcc.c **** 
 272:Drivers/STM32H7xx_HAL_Driver/Src/stm32h7xx_hal_rcc.c ****   /* Clear PLLON bit */
 273:Drivers/STM32H7xx_HAL_Driver/Src/stm32h7xx_hal_rcc.c ****   CLEAR_BIT(RCC->CR, RCC_CR_PLL1ON);
 274:Drivers/STM32H7xx_HAL_Driver/Src/stm32h7xx_hal_rcc.c **** 
 275:Drivers/STM32H7xx_HAL_Driver/Src/stm32h7xx_hal_rcc.c ****   /* Wait till PLL is disabled */
 276:Drivers/STM32H7xx_HAL_Driver/Src/stm32h7xx_hal_rcc.c ****   while (READ_BIT(RCC->CR, RCC_CR_PLL1RDY) != 0U)
 277:Drivers/STM32H7xx_HAL_Driver/Src/stm32h7xx_hal_rcc.c ****   {
 278:Drivers/STM32H7xx_HAL_Driver/Src/stm32h7xx_hal_rcc.c ****     if ((HAL_GetTick() - tickstart) > PLL_TIMEOUT_VALUE)
 279:Drivers/STM32H7xx_HAL_Driver/Src/stm32h7xx_hal_rcc.c ****     {
 280:Drivers/STM32H7xx_HAL_Driver/Src/stm32h7xx_hal_rcc.c ****       return HAL_TIMEOUT;
 281:Drivers/STM32H7xx_HAL_Driver/Src/stm32h7xx_hal_rcc.c ****     }
 282:Drivers/STM32H7xx_HAL_Driver/Src/stm32h7xx_hal_rcc.c ****   }
 283:Drivers/STM32H7xx_HAL_Driver/Src/stm32h7xx_hal_rcc.c **** 
 284:Drivers/STM32H7xx_HAL_Driver/Src/stm32h7xx_hal_rcc.c ****   /* Get Start Tick */
 285:Drivers/STM32H7xx_HAL_Driver/Src/stm32h7xx_hal_rcc.c ****   tickstart = HAL_GetTick();
 286:Drivers/STM32H7xx_HAL_Driver/Src/stm32h7xx_hal_rcc.c **** 
 287:Drivers/STM32H7xx_HAL_Driver/Src/stm32h7xx_hal_rcc.c ****   /* Reset PLL2ON bit */
 288:Drivers/STM32H7xx_HAL_Driver/Src/stm32h7xx_hal_rcc.c ****   CLEAR_BIT(RCC->CR, RCC_CR_PLL2ON);
 289:Drivers/STM32H7xx_HAL_Driver/Src/stm32h7xx_hal_rcc.c **** 
 290:Drivers/STM32H7xx_HAL_Driver/Src/stm32h7xx_hal_rcc.c ****   /* Wait till PLL2 is disabled */
 291:Drivers/STM32H7xx_HAL_Driver/Src/stm32h7xx_hal_rcc.c ****   while (READ_BIT(RCC->CR, RCC_CR_PLL2RDY) != 0U)
 292:Drivers/STM32H7xx_HAL_Driver/Src/stm32h7xx_hal_rcc.c ****   {
 293:Drivers/STM32H7xx_HAL_Driver/Src/stm32h7xx_hal_rcc.c ****     if ((HAL_GetTick() - tickstart) > PLL_TIMEOUT_VALUE)
 294:Drivers/STM32H7xx_HAL_Driver/Src/stm32h7xx_hal_rcc.c ****     {
 295:Drivers/STM32H7xx_HAL_Driver/Src/stm32h7xx_hal_rcc.c ****       return HAL_TIMEOUT;
 296:Drivers/STM32H7xx_HAL_Driver/Src/stm32h7xx_hal_rcc.c ****     }
 297:Drivers/STM32H7xx_HAL_Driver/Src/stm32h7xx_hal_rcc.c ****   }
 298:Drivers/STM32H7xx_HAL_Driver/Src/stm32h7xx_hal_rcc.c **** 
 299:Drivers/STM32H7xx_HAL_Driver/Src/stm32h7xx_hal_rcc.c ****   /* Get Start Tick */
 300:Drivers/STM32H7xx_HAL_Driver/Src/stm32h7xx_hal_rcc.c ****   tickstart = HAL_GetTick();
ARM GAS  /tmp/ccLdxC59.s 			page 9


 301:Drivers/STM32H7xx_HAL_Driver/Src/stm32h7xx_hal_rcc.c **** 
 302:Drivers/STM32H7xx_HAL_Driver/Src/stm32h7xx_hal_rcc.c ****   /* Reset PLL3 bit */
 303:Drivers/STM32H7xx_HAL_Driver/Src/stm32h7xx_hal_rcc.c ****   CLEAR_BIT(RCC->CR, RCC_CR_PLL3ON);
 304:Drivers/STM32H7xx_HAL_Driver/Src/stm32h7xx_hal_rcc.c **** 
 305:Drivers/STM32H7xx_HAL_Driver/Src/stm32h7xx_hal_rcc.c ****   /* Wait till PLL3 is disabled */
 306:Drivers/STM32H7xx_HAL_Driver/Src/stm32h7xx_hal_rcc.c ****   while (READ_BIT(RCC->CR, RCC_CR_PLL3RDY) != 0U)
 307:Drivers/STM32H7xx_HAL_Driver/Src/stm32h7xx_hal_rcc.c ****   {
 308:Drivers/STM32H7xx_HAL_Driver/Src/stm32h7xx_hal_rcc.c ****     if ((HAL_GetTick() - tickstart) > PLL_TIMEOUT_VALUE)
 309:Drivers/STM32H7xx_HAL_Driver/Src/stm32h7xx_hal_rcc.c ****     {
 310:Drivers/STM32H7xx_HAL_Driver/Src/stm32h7xx_hal_rcc.c ****       return HAL_TIMEOUT;
 311:Drivers/STM32H7xx_HAL_Driver/Src/stm32h7xx_hal_rcc.c ****     }
 312:Drivers/STM32H7xx_HAL_Driver/Src/stm32h7xx_hal_rcc.c ****   }
 313:Drivers/STM32H7xx_HAL_Driver/Src/stm32h7xx_hal_rcc.c **** 
 314:Drivers/STM32H7xx_HAL_Driver/Src/stm32h7xx_hal_rcc.c **** #if defined(RCC_D1CFGR_HPRE)
 315:Drivers/STM32H7xx_HAL_Driver/Src/stm32h7xx_hal_rcc.c ****   /* Reset D1CFGR register */
 316:Drivers/STM32H7xx_HAL_Driver/Src/stm32h7xx_hal_rcc.c ****   CLEAR_REG(RCC->D1CFGR);
 317:Drivers/STM32H7xx_HAL_Driver/Src/stm32h7xx_hal_rcc.c **** 
 318:Drivers/STM32H7xx_HAL_Driver/Src/stm32h7xx_hal_rcc.c ****   /* Reset D2CFGR register */
 319:Drivers/STM32H7xx_HAL_Driver/Src/stm32h7xx_hal_rcc.c ****   CLEAR_REG(RCC->D2CFGR);
 320:Drivers/STM32H7xx_HAL_Driver/Src/stm32h7xx_hal_rcc.c **** 
 321:Drivers/STM32H7xx_HAL_Driver/Src/stm32h7xx_hal_rcc.c ****   /* Reset D3CFGR register */
 322:Drivers/STM32H7xx_HAL_Driver/Src/stm32h7xx_hal_rcc.c ****   CLEAR_REG(RCC->D3CFGR);
 323:Drivers/STM32H7xx_HAL_Driver/Src/stm32h7xx_hal_rcc.c **** #else
 324:Drivers/STM32H7xx_HAL_Driver/Src/stm32h7xx_hal_rcc.c ****   /* Reset CDCFGR1 register */
 325:Drivers/STM32H7xx_HAL_Driver/Src/stm32h7xx_hal_rcc.c ****   CLEAR_REG(RCC->CDCFGR1);
 326:Drivers/STM32H7xx_HAL_Driver/Src/stm32h7xx_hal_rcc.c **** 
 327:Drivers/STM32H7xx_HAL_Driver/Src/stm32h7xx_hal_rcc.c ****   /* Reset CDCFGR2 register */
 328:Drivers/STM32H7xx_HAL_Driver/Src/stm32h7xx_hal_rcc.c ****   CLEAR_REG(RCC->CDCFGR2);
 329:Drivers/STM32H7xx_HAL_Driver/Src/stm32h7xx_hal_rcc.c **** 
 330:Drivers/STM32H7xx_HAL_Driver/Src/stm32h7xx_hal_rcc.c ****   /* Reset SRDCFGR register */
 331:Drivers/STM32H7xx_HAL_Driver/Src/stm32h7xx_hal_rcc.c ****   CLEAR_REG(RCC->SRDCFGR);
 332:Drivers/STM32H7xx_HAL_Driver/Src/stm32h7xx_hal_rcc.c **** #endif
 333:Drivers/STM32H7xx_HAL_Driver/Src/stm32h7xx_hal_rcc.c **** 
 334:Drivers/STM32H7xx_HAL_Driver/Src/stm32h7xx_hal_rcc.c ****   /* Reset PLLCKSELR register to default value */
 335:Drivers/STM32H7xx_HAL_Driver/Src/stm32h7xx_hal_rcc.c ****   RCC->PLLCKSELR= RCC_PLLCKSELR_DIVM1_5|RCC_PLLCKSELR_DIVM2_5|RCC_PLLCKSELR_DIVM3_5;
 336:Drivers/STM32H7xx_HAL_Driver/Src/stm32h7xx_hal_rcc.c **** 
 337:Drivers/STM32H7xx_HAL_Driver/Src/stm32h7xx_hal_rcc.c ****   /* Reset PLLCFGR register to default value */
 338:Drivers/STM32H7xx_HAL_Driver/Src/stm32h7xx_hal_rcc.c ****   WRITE_REG(RCC->PLLCFGR, 0x01FF0000U);
 339:Drivers/STM32H7xx_HAL_Driver/Src/stm32h7xx_hal_rcc.c **** 
 340:Drivers/STM32H7xx_HAL_Driver/Src/stm32h7xx_hal_rcc.c ****   /* Reset PLL1DIVR register to default value */
 341:Drivers/STM32H7xx_HAL_Driver/Src/stm32h7xx_hal_rcc.c ****   WRITE_REG(RCC->PLL1DIVR,0x01010280U);
 342:Drivers/STM32H7xx_HAL_Driver/Src/stm32h7xx_hal_rcc.c **** 
 343:Drivers/STM32H7xx_HAL_Driver/Src/stm32h7xx_hal_rcc.c ****   /* Reset PLL1FRACR register */
 344:Drivers/STM32H7xx_HAL_Driver/Src/stm32h7xx_hal_rcc.c ****   CLEAR_REG(RCC->PLL1FRACR);
 345:Drivers/STM32H7xx_HAL_Driver/Src/stm32h7xx_hal_rcc.c **** 
 346:Drivers/STM32H7xx_HAL_Driver/Src/stm32h7xx_hal_rcc.c ****   /* Reset PLL2DIVR register to default value */
 347:Drivers/STM32H7xx_HAL_Driver/Src/stm32h7xx_hal_rcc.c ****   WRITE_REG(RCC->PLL2DIVR,0x01010280U);
 348:Drivers/STM32H7xx_HAL_Driver/Src/stm32h7xx_hal_rcc.c **** 
 349:Drivers/STM32H7xx_HAL_Driver/Src/stm32h7xx_hal_rcc.c ****   /* Reset PLL2FRACR register */
 350:Drivers/STM32H7xx_HAL_Driver/Src/stm32h7xx_hal_rcc.c ****   CLEAR_REG(RCC->PLL2FRACR);
 351:Drivers/STM32H7xx_HAL_Driver/Src/stm32h7xx_hal_rcc.c **** 
 352:Drivers/STM32H7xx_HAL_Driver/Src/stm32h7xx_hal_rcc.c ****   /* Reset PLL3DIVR register to default value */
 353:Drivers/STM32H7xx_HAL_Driver/Src/stm32h7xx_hal_rcc.c ****   WRITE_REG(RCC->PLL3DIVR,0x01010280U);
 354:Drivers/STM32H7xx_HAL_Driver/Src/stm32h7xx_hal_rcc.c **** 
 355:Drivers/STM32H7xx_HAL_Driver/Src/stm32h7xx_hal_rcc.c ****   /* Reset PLL3FRACR register */
 356:Drivers/STM32H7xx_HAL_Driver/Src/stm32h7xx_hal_rcc.c ****   CLEAR_REG(RCC->PLL3FRACR);
 357:Drivers/STM32H7xx_HAL_Driver/Src/stm32h7xx_hal_rcc.c **** 
ARM GAS  /tmp/ccLdxC59.s 			page 10


 358:Drivers/STM32H7xx_HAL_Driver/Src/stm32h7xx_hal_rcc.c ****   /* Reset HSEBYP bit */
 359:Drivers/STM32H7xx_HAL_Driver/Src/stm32h7xx_hal_rcc.c ****   CLEAR_BIT(RCC->CR, RCC_CR_HSEBYP);
 360:Drivers/STM32H7xx_HAL_Driver/Src/stm32h7xx_hal_rcc.c **** 
 361:Drivers/STM32H7xx_HAL_Driver/Src/stm32h7xx_hal_rcc.c ****   /* Disable all interrupts */
 362:Drivers/STM32H7xx_HAL_Driver/Src/stm32h7xx_hal_rcc.c ****   CLEAR_REG(RCC->CIER);
 363:Drivers/STM32H7xx_HAL_Driver/Src/stm32h7xx_hal_rcc.c **** 
 364:Drivers/STM32H7xx_HAL_Driver/Src/stm32h7xx_hal_rcc.c ****   /* Clear all interrupts flags */
 365:Drivers/STM32H7xx_HAL_Driver/Src/stm32h7xx_hal_rcc.c ****   WRITE_REG(RCC->CICR,0xFFFFFFFFU);
 366:Drivers/STM32H7xx_HAL_Driver/Src/stm32h7xx_hal_rcc.c **** 
 367:Drivers/STM32H7xx_HAL_Driver/Src/stm32h7xx_hal_rcc.c ****   /* Reset all RSR flags */
 368:Drivers/STM32H7xx_HAL_Driver/Src/stm32h7xx_hal_rcc.c ****   SET_BIT(RCC->RSR, RCC_RSR_RMVF);
 369:Drivers/STM32H7xx_HAL_Driver/Src/stm32h7xx_hal_rcc.c **** 
 370:Drivers/STM32H7xx_HAL_Driver/Src/stm32h7xx_hal_rcc.c ****       /* Decreasing the number of wait states because of lower CPU frequency */
 371:Drivers/STM32H7xx_HAL_Driver/Src/stm32h7xx_hal_rcc.c ****   if(FLASH_LATENCY_DEFAULT  < __HAL_FLASH_GET_LATENCY())
 372:Drivers/STM32H7xx_HAL_Driver/Src/stm32h7xx_hal_rcc.c ****   {
 373:Drivers/STM32H7xx_HAL_Driver/Src/stm32h7xx_hal_rcc.c ****     /* Program the new number of wait states to the LATENCY bits in the FLASH_ACR register */
 374:Drivers/STM32H7xx_HAL_Driver/Src/stm32h7xx_hal_rcc.c ****     __HAL_FLASH_SET_LATENCY(FLASH_LATENCY_DEFAULT);
 375:Drivers/STM32H7xx_HAL_Driver/Src/stm32h7xx_hal_rcc.c **** 
 376:Drivers/STM32H7xx_HAL_Driver/Src/stm32h7xx_hal_rcc.c ****     /* Check that the new number of wait states is taken into account to access the Flash
 377:Drivers/STM32H7xx_HAL_Driver/Src/stm32h7xx_hal_rcc.c ****     memory by reading the FLASH_ACR register */
 378:Drivers/STM32H7xx_HAL_Driver/Src/stm32h7xx_hal_rcc.c ****     if(__HAL_FLASH_GET_LATENCY() != FLASH_LATENCY_DEFAULT)
 379:Drivers/STM32H7xx_HAL_Driver/Src/stm32h7xx_hal_rcc.c ****     {
 380:Drivers/STM32H7xx_HAL_Driver/Src/stm32h7xx_hal_rcc.c ****       return HAL_ERROR;
 381:Drivers/STM32H7xx_HAL_Driver/Src/stm32h7xx_hal_rcc.c ****     }
 382:Drivers/STM32H7xx_HAL_Driver/Src/stm32h7xx_hal_rcc.c **** 
 383:Drivers/STM32H7xx_HAL_Driver/Src/stm32h7xx_hal_rcc.c **** }
 384:Drivers/STM32H7xx_HAL_Driver/Src/stm32h7xx_hal_rcc.c **** 
 385:Drivers/STM32H7xx_HAL_Driver/Src/stm32h7xx_hal_rcc.c ****   return HAL_OK;
 386:Drivers/STM32H7xx_HAL_Driver/Src/stm32h7xx_hal_rcc.c **** }
 141              		.loc 1 386 1 view .LVU45
 142 006c 2046     		mov	r0, r4
 143 006e F8BD     		pop	{r3, r4, r5, r6, r7, pc}
 144              	.L9:
 221:Drivers/STM32H7xx_HAL_Driver/Src/stm32h7xx_hal_rcc.c ****     }
 145              		.loc 1 221 14 view .LVU46
 146 0070 0324     		movs	r4, #3
 147              		.loc 1 386 1 view .LVU47
 148 0072 2046     		mov	r0, r4
 149 0074 F8BD     		pop	{r3, r4, r5, r6, r7, pc}
 150              	.L28:
 242:Drivers/STM32H7xx_HAL_Driver/Src/stm32h7xx_hal_rcc.c **** 
 151              		.loc 1 242 3 is_stmt 1 view .LVU48
 242:Drivers/STM32H7xx_HAL_Driver/Src/stm32h7xx_hal_rcc.c **** 
 152              		.loc 1 242 15 is_stmt 0 view .LVU49
 153 0076 FFF7FEFF 		bl	HAL_GetTick
 154              	.LVL6:
 245:Drivers/STM32H7xx_HAL_Driver/Src/stm32h7xx_hal_rcc.c ****   {
 155              		.loc 1 245 10 view .LVU50
 156 007a 414E     		ldr	r6, .L29+4
 247:Drivers/STM32H7xx_HAL_Driver/Src/stm32h7xx_hal_rcc.c ****     {
 157              		.loc 1 247 8 view .LVU51
 158 007c 41F28837 		movw	r7, #5000
 242:Drivers/STM32H7xx_HAL_Driver/Src/stm32h7xx_hal_rcc.c **** 
 159              		.loc 1 242 15 view .LVU52
 160 0080 0546     		mov	r5, r0
 161              	.LVL7:
 245:Drivers/STM32H7xx_HAL_Driver/Src/stm32h7xx_hal_rcc.c ****   {
ARM GAS  /tmp/ccLdxC59.s 			page 11


 162              		.loc 1 245 3 is_stmt 1 view .LVU53
 245:Drivers/STM32H7xx_HAL_Driver/Src/stm32h7xx_hal_rcc.c ****   {
 163              		.loc 1 245 9 is_stmt 0 view .LVU54
 164 0082 04E0     		b	.L8
 165              	.LVL8:
 166              	.L10:
 247:Drivers/STM32H7xx_HAL_Driver/Src/stm32h7xx_hal_rcc.c ****     {
 167              		.loc 1 247 10 view .LVU55
 168 0084 FFF7FEFF 		bl	HAL_GetTick
 169              	.LVL9:
 247:Drivers/STM32H7xx_HAL_Driver/Src/stm32h7xx_hal_rcc.c ****     {
 170              		.loc 1 247 24 view .LVU56
 171 0088 431B     		subs	r3, r0, r5
 247:Drivers/STM32H7xx_HAL_Driver/Src/stm32h7xx_hal_rcc.c ****     {
 172              		.loc 1 247 8 view .LVU57
 173 008a BB42     		cmp	r3, r7
 174 008c F0D8     		bhi	.L9
 175              	.L8:
 247:Drivers/STM32H7xx_HAL_Driver/Src/stm32h7xx_hal_rcc.c ****     {
 176              		.loc 1 247 5 is_stmt 1 view .LVU58
 245:Drivers/STM32H7xx_HAL_Driver/Src/stm32h7xx_hal_rcc.c ****   {
 177              		.loc 1 245 9 view .LVU59
 245:Drivers/STM32H7xx_HAL_Driver/Src/stm32h7xx_hal_rcc.c ****   {
 178              		.loc 1 245 10 is_stmt 0 view .LVU60
 179 008e 3369     		ldr	r3, [r6, #16]
 245:Drivers/STM32H7xx_HAL_Driver/Src/stm32h7xx_hal_rcc.c ****   {
 180              		.loc 1 245 9 view .LVU61
 181 0090 13F0380F 		tst	r3, #56
 182 0094 F6D1     		bne	.L10
 254:Drivers/STM32H7xx_HAL_Driver/Src/stm32h7xx_hal_rcc.c **** 
 183              		.loc 1 254 3 is_stmt 1 view .LVU62
 254:Drivers/STM32H7xx_HAL_Driver/Src/stm32h7xx_hal_rcc.c **** 
 184              		.loc 1 254 15 is_stmt 0 view .LVU63
 185 0096 FFF7FEFF 		bl	HAL_GetTick
 186              	.LVL10:
 257:Drivers/STM32H7xx_HAL_Driver/Src/stm32h7xx_hal_rcc.c ****   | RCC_CR_HSI48ON | RCC_CR_CSSHSEON);
 187              		.loc 1 257 3 view .LVU64
 188 009a 3268     		ldr	r2, [r6]
 189 009c 3D4B     		ldr	r3, .L29+24
 254:Drivers/STM32H7xx_HAL_Driver/Src/stm32h7xx_hal_rcc.c **** 
 190              		.loc 1 254 15 view .LVU65
 191 009e 0546     		mov	r5, r0
 192              	.LVL11:
 257:Drivers/STM32H7xx_HAL_Driver/Src/stm32h7xx_hal_rcc.c ****   | RCC_CR_HSI48ON | RCC_CR_CSSHSEON);
 193              		.loc 1 257 3 is_stmt 1 view .LVU66
 261:Drivers/STM32H7xx_HAL_Driver/Src/stm32h7xx_hal_rcc.c ****   {
 194              		.loc 1 261 10 is_stmt 0 view .LVU67
 195 00a0 374F     		ldr	r7, .L29+4
 257:Drivers/STM32H7xx_HAL_Driver/Src/stm32h7xx_hal_rcc.c ****   | RCC_CR_HSI48ON | RCC_CR_CSSHSEON);
 196              		.loc 1 257 3 view .LVU68
 197 00a2 1340     		ands	r3, r3, r2
 198 00a4 3360     		str	r3, [r6]
 261:Drivers/STM32H7xx_HAL_Driver/Src/stm32h7xx_hal_rcc.c ****   {
 199              		.loc 1 261 3 is_stmt 1 view .LVU69
 261:Drivers/STM32H7xx_HAL_Driver/Src/stm32h7xx_hal_rcc.c ****   {
 200              		.loc 1 261 9 is_stmt 0 view .LVU70
 201 00a6 04E0     		b	.L11
ARM GAS  /tmp/ccLdxC59.s 			page 12


 202              	.LVL12:
 203              	.L12:
 263:Drivers/STM32H7xx_HAL_Driver/Src/stm32h7xx_hal_rcc.c ****     {
 204              		.loc 1 263 10 view .LVU71
 205 00a8 FFF7FEFF 		bl	HAL_GetTick
 206              	.LVL13:
 263:Drivers/STM32H7xx_HAL_Driver/Src/stm32h7xx_hal_rcc.c ****     {
 207              		.loc 1 263 24 view .LVU72
 208 00ac 401B     		subs	r0, r0, r5
 263:Drivers/STM32H7xx_HAL_Driver/Src/stm32h7xx_hal_rcc.c ****     {
 209              		.loc 1 263 8 view .LVU73
 210 00ae 6428     		cmp	r0, #100
 211 00b0 DED8     		bhi	.L9
 212              	.L11:
 263:Drivers/STM32H7xx_HAL_Driver/Src/stm32h7xx_hal_rcc.c ****     {
 213              		.loc 1 263 5 is_stmt 1 view .LVU74
 261:Drivers/STM32H7xx_HAL_Driver/Src/stm32h7xx_hal_rcc.c ****   {
 214              		.loc 1 261 9 view .LVU75
 261:Drivers/STM32H7xx_HAL_Driver/Src/stm32h7xx_hal_rcc.c ****   {
 215              		.loc 1 261 10 is_stmt 0 view .LVU76
 216 00b2 3B68     		ldr	r3, [r7]
 261:Drivers/STM32H7xx_HAL_Driver/Src/stm32h7xx_hal_rcc.c ****   {
 217              		.loc 1 261 9 view .LVU77
 218 00b4 9803     		lsls	r0, r3, #14
 219 00b6 F7D4     		bmi	.L12
 270:Drivers/STM32H7xx_HAL_Driver/Src/stm32h7xx_hal_rcc.c **** 
 220              		.loc 1 270 3 is_stmt 1 view .LVU78
 270:Drivers/STM32H7xx_HAL_Driver/Src/stm32h7xx_hal_rcc.c **** 
 221              		.loc 1 270 15 is_stmt 0 view .LVU79
 222 00b8 FFF7FEFF 		bl	HAL_GetTick
 223              	.LVL14:
 273:Drivers/STM32H7xx_HAL_Driver/Src/stm32h7xx_hal_rcc.c **** 
 224              		.loc 1 273 3 view .LVU80
 225 00bc 3B68     		ldr	r3, [r7]
 270:Drivers/STM32H7xx_HAL_Driver/Src/stm32h7xx_hal_rcc.c **** 
 226              		.loc 1 270 15 view .LVU81
 227 00be 0546     		mov	r5, r0
 228              	.LVL15:
 273:Drivers/STM32H7xx_HAL_Driver/Src/stm32h7xx_hal_rcc.c **** 
 229              		.loc 1 273 3 is_stmt 1 view .LVU82
 276:Drivers/STM32H7xx_HAL_Driver/Src/stm32h7xx_hal_rcc.c ****   {
 230              		.loc 1 276 10 is_stmt 0 view .LVU83
 231 00c0 2F4E     		ldr	r6, .L29+4
 273:Drivers/STM32H7xx_HAL_Driver/Src/stm32h7xx_hal_rcc.c **** 
 232              		.loc 1 273 3 view .LVU84
 233 00c2 23F08073 		bic	r3, r3, #16777216
 234 00c6 3B60     		str	r3, [r7]
 276:Drivers/STM32H7xx_HAL_Driver/Src/stm32h7xx_hal_rcc.c ****   {
 235              		.loc 1 276 3 is_stmt 1 view .LVU85
 276:Drivers/STM32H7xx_HAL_Driver/Src/stm32h7xx_hal_rcc.c ****   {
 236              		.loc 1 276 9 is_stmt 0 view .LVU86
 237 00c8 04E0     		b	.L13
 238              	.LVL16:
 239              	.L14:
 278:Drivers/STM32H7xx_HAL_Driver/Src/stm32h7xx_hal_rcc.c ****     {
 240              		.loc 1 278 10 view .LVU87
 241 00ca FFF7FEFF 		bl	HAL_GetTick
ARM GAS  /tmp/ccLdxC59.s 			page 13


 242              	.LVL17:
 278:Drivers/STM32H7xx_HAL_Driver/Src/stm32h7xx_hal_rcc.c ****     {
 243              		.loc 1 278 24 view .LVU88
 244 00ce 401B     		subs	r0, r0, r5
 278:Drivers/STM32H7xx_HAL_Driver/Src/stm32h7xx_hal_rcc.c ****     {
 245              		.loc 1 278 8 view .LVU89
 246 00d0 0228     		cmp	r0, #2
 247 00d2 CDD8     		bhi	.L9
 248              	.L13:
 278:Drivers/STM32H7xx_HAL_Driver/Src/stm32h7xx_hal_rcc.c ****     {
 249              		.loc 1 278 5 is_stmt 1 view .LVU90
 276:Drivers/STM32H7xx_HAL_Driver/Src/stm32h7xx_hal_rcc.c ****   {
 250              		.loc 1 276 9 view .LVU91
 276:Drivers/STM32H7xx_HAL_Driver/Src/stm32h7xx_hal_rcc.c ****   {
 251              		.loc 1 276 10 is_stmt 0 view .LVU92
 252 00d4 3368     		ldr	r3, [r6]
 276:Drivers/STM32H7xx_HAL_Driver/Src/stm32h7xx_hal_rcc.c ****   {
 253              		.loc 1 276 9 view .LVU93
 254 00d6 9901     		lsls	r1, r3, #6
 255 00d8 F7D4     		bmi	.L14
 285:Drivers/STM32H7xx_HAL_Driver/Src/stm32h7xx_hal_rcc.c **** 
 256              		.loc 1 285 3 is_stmt 1 view .LVU94
 285:Drivers/STM32H7xx_HAL_Driver/Src/stm32h7xx_hal_rcc.c **** 
 257              		.loc 1 285 15 is_stmt 0 view .LVU95
 258 00da FFF7FEFF 		bl	HAL_GetTick
 259              	.LVL18:
 288:Drivers/STM32H7xx_HAL_Driver/Src/stm32h7xx_hal_rcc.c **** 
 260              		.loc 1 288 3 view .LVU96
 261 00de 3368     		ldr	r3, [r6]
 285:Drivers/STM32H7xx_HAL_Driver/Src/stm32h7xx_hal_rcc.c **** 
 262              		.loc 1 285 15 view .LVU97
 263 00e0 0546     		mov	r5, r0
 264              	.LVL19:
 288:Drivers/STM32H7xx_HAL_Driver/Src/stm32h7xx_hal_rcc.c **** 
 265              		.loc 1 288 3 is_stmt 1 view .LVU98
 291:Drivers/STM32H7xx_HAL_Driver/Src/stm32h7xx_hal_rcc.c ****   {
 266              		.loc 1 291 10 is_stmt 0 view .LVU99
 267 00e2 274F     		ldr	r7, .L29+4
 288:Drivers/STM32H7xx_HAL_Driver/Src/stm32h7xx_hal_rcc.c **** 
 268              		.loc 1 288 3 view .LVU100
 269 00e4 23F08063 		bic	r3, r3, #67108864
 270 00e8 3360     		str	r3, [r6]
 291:Drivers/STM32H7xx_HAL_Driver/Src/stm32h7xx_hal_rcc.c ****   {
 271              		.loc 1 291 3 is_stmt 1 view .LVU101
 291:Drivers/STM32H7xx_HAL_Driver/Src/stm32h7xx_hal_rcc.c ****   {
 272              		.loc 1 291 9 is_stmt 0 view .LVU102
 273 00ea 04E0     		b	.L15
 274              	.LVL20:
 275              	.L16:
 293:Drivers/STM32H7xx_HAL_Driver/Src/stm32h7xx_hal_rcc.c ****     {
 276              		.loc 1 293 10 view .LVU103
 277 00ec FFF7FEFF 		bl	HAL_GetTick
 278              	.LVL21:
 293:Drivers/STM32H7xx_HAL_Driver/Src/stm32h7xx_hal_rcc.c ****     {
 279              		.loc 1 293 24 view .LVU104
 280 00f0 401B     		subs	r0, r0, r5
 293:Drivers/STM32H7xx_HAL_Driver/Src/stm32h7xx_hal_rcc.c ****     {
ARM GAS  /tmp/ccLdxC59.s 			page 14


 281              		.loc 1 293 8 view .LVU105
 282 00f2 0228     		cmp	r0, #2
 283 00f4 BCD8     		bhi	.L9
 284              	.L15:
 293:Drivers/STM32H7xx_HAL_Driver/Src/stm32h7xx_hal_rcc.c ****     {
 285              		.loc 1 293 5 is_stmt 1 view .LVU106
 291:Drivers/STM32H7xx_HAL_Driver/Src/stm32h7xx_hal_rcc.c ****   {
 286              		.loc 1 291 9 view .LVU107
 291:Drivers/STM32H7xx_HAL_Driver/Src/stm32h7xx_hal_rcc.c ****   {
 287              		.loc 1 291 10 is_stmt 0 view .LVU108
 288 00f6 3B68     		ldr	r3, [r7]
 291:Drivers/STM32H7xx_HAL_Driver/Src/stm32h7xx_hal_rcc.c ****   {
 289              		.loc 1 291 9 view .LVU109
 290 00f8 1A01     		lsls	r2, r3, #4
 291 00fa F7D4     		bmi	.L16
 300:Drivers/STM32H7xx_HAL_Driver/Src/stm32h7xx_hal_rcc.c **** 
 292              		.loc 1 300 3 is_stmt 1 view .LVU110
 300:Drivers/STM32H7xx_HAL_Driver/Src/stm32h7xx_hal_rcc.c **** 
 293              		.loc 1 300 15 is_stmt 0 view .LVU111
 294 00fc FFF7FEFF 		bl	HAL_GetTick
 295              	.LVL22:
 303:Drivers/STM32H7xx_HAL_Driver/Src/stm32h7xx_hal_rcc.c **** 
 296              		.loc 1 303 3 view .LVU112
 297 0100 3B68     		ldr	r3, [r7]
 300:Drivers/STM32H7xx_HAL_Driver/Src/stm32h7xx_hal_rcc.c **** 
 298              		.loc 1 300 15 view .LVU113
 299 0102 0646     		mov	r6, r0
 300              	.LVL23:
 303:Drivers/STM32H7xx_HAL_Driver/Src/stm32h7xx_hal_rcc.c **** 
 301              		.loc 1 303 3 is_stmt 1 view .LVU114
 306:Drivers/STM32H7xx_HAL_Driver/Src/stm32h7xx_hal_rcc.c ****   {
 302              		.loc 1 306 10 is_stmt 0 view .LVU115
 303 0104 1E4D     		ldr	r5, .L29+4
 303:Drivers/STM32H7xx_HAL_Driver/Src/stm32h7xx_hal_rcc.c **** 
 304              		.loc 1 303 3 view .LVU116
 305 0106 23F08053 		bic	r3, r3, #268435456
 306 010a 3B60     		str	r3, [r7]
 306:Drivers/STM32H7xx_HAL_Driver/Src/stm32h7xx_hal_rcc.c ****   {
 307              		.loc 1 306 3 is_stmt 1 view .LVU117
 306:Drivers/STM32H7xx_HAL_Driver/Src/stm32h7xx_hal_rcc.c ****   {
 308              		.loc 1 306 9 is_stmt 0 view .LVU118
 309 010c 04E0     		b	.L17
 310              	.LVL24:
 311              	.L18:
 308:Drivers/STM32H7xx_HAL_Driver/Src/stm32h7xx_hal_rcc.c ****     {
 312              		.loc 1 308 10 view .LVU119
 313 010e FFF7FEFF 		bl	HAL_GetTick
 314              	.LVL25:
 308:Drivers/STM32H7xx_HAL_Driver/Src/stm32h7xx_hal_rcc.c ****     {
 315              		.loc 1 308 24 view .LVU120
 316 0112 801B     		subs	r0, r0, r6
 308:Drivers/STM32H7xx_HAL_Driver/Src/stm32h7xx_hal_rcc.c ****     {
 317              		.loc 1 308 8 view .LVU121
 318 0114 0228     		cmp	r0, #2
 319 0116 ABD8     		bhi	.L9
 320              	.L17:
 308:Drivers/STM32H7xx_HAL_Driver/Src/stm32h7xx_hal_rcc.c ****     {
ARM GAS  /tmp/ccLdxC59.s 			page 15


 321              		.loc 1 308 5 is_stmt 1 view .LVU122
 306:Drivers/STM32H7xx_HAL_Driver/Src/stm32h7xx_hal_rcc.c ****   {
 322              		.loc 1 306 9 view .LVU123
 306:Drivers/STM32H7xx_HAL_Driver/Src/stm32h7xx_hal_rcc.c ****   {
 323              		.loc 1 306 10 is_stmt 0 view .LVU124
 324 0118 2B68     		ldr	r3, [r5]
 306:Drivers/STM32H7xx_HAL_Driver/Src/stm32h7xx_hal_rcc.c ****   {
 325              		.loc 1 306 9 view .LVU125
 326 011a 13F00053 		ands	r3, r3, #536870912
 327 011e F6D1     		bne	.L18
 316:Drivers/STM32H7xx_HAL_Driver/Src/stm32h7xx_hal_rcc.c **** 
 328              		.loc 1 316 3 is_stmt 1 view .LVU126
 341:Drivers/STM32H7xx_HAL_Driver/Src/stm32h7xx_hal_rcc.c **** 
 329              		.loc 1 341 3 is_stmt 0 view .LVU127
 330 0120 1D4A     		ldr	r2, .L29+28
 365:Drivers/STM32H7xx_HAL_Driver/Src/stm32h7xx_hal_rcc.c **** 
 331              		.loc 1 365 3 view .LVU128
 332 0122 4FF0FF30 		mov	r0, #-1
 338:Drivers/STM32H7xx_HAL_Driver/Src/stm32h7xx_hal_rcc.c **** 
 333              		.loc 1 338 3 view .LVU129
 334 0126 1D49     		ldr	r1, .L29+32
 335:Drivers/STM32H7xx_HAL_Driver/Src/stm32h7xx_hal_rcc.c **** 
 335              		.loc 1 335 17 view .LVU130
 336 0128 1D4E     		ldr	r6, .L29+36
 337              	.LVL26:
 316:Drivers/STM32H7xx_HAL_Driver/Src/stm32h7xx_hal_rcc.c **** 
 338              		.loc 1 316 3 view .LVU131
 339 012a AB61     		str	r3, [r5, #24]
 319:Drivers/STM32H7xx_HAL_Driver/Src/stm32h7xx_hal_rcc.c **** 
 340              		.loc 1 319 3 is_stmt 1 view .LVU132
 341 012c EB61     		str	r3, [r5, #28]
 322:Drivers/STM32H7xx_HAL_Driver/Src/stm32h7xx_hal_rcc.c **** #else
 342              		.loc 1 322 3 view .LVU133
 343 012e 2B62     		str	r3, [r5, #32]
 335:Drivers/STM32H7xx_HAL_Driver/Src/stm32h7xx_hal_rcc.c **** 
 344              		.loc 1 335 3 view .LVU134
 335:Drivers/STM32H7xx_HAL_Driver/Src/stm32h7xx_hal_rcc.c **** 
 345              		.loc 1 335 17 is_stmt 0 view .LVU135
 346 0130 AE62     		str	r6, [r5, #40]
 338:Drivers/STM32H7xx_HAL_Driver/Src/stm32h7xx_hal_rcc.c **** 
 347              		.loc 1 338 3 is_stmt 1 view .LVU136
 348 0132 E962     		str	r1, [r5, #44]
 341:Drivers/STM32H7xx_HAL_Driver/Src/stm32h7xx_hal_rcc.c **** 
 349              		.loc 1 341 3 view .LVU137
 350 0134 2A63     		str	r2, [r5, #48]
 344:Drivers/STM32H7xx_HAL_Driver/Src/stm32h7xx_hal_rcc.c **** 
 351              		.loc 1 344 3 view .LVU138
 352 0136 6B63     		str	r3, [r5, #52]
 347:Drivers/STM32H7xx_HAL_Driver/Src/stm32h7xx_hal_rcc.c **** 
 353              		.loc 1 347 3 view .LVU139
 354 0138 AA63     		str	r2, [r5, #56]
 350:Drivers/STM32H7xx_HAL_Driver/Src/stm32h7xx_hal_rcc.c **** 
 355              		.loc 1 350 3 view .LVU140
 356 013a EB63     		str	r3, [r5, #60]
 353:Drivers/STM32H7xx_HAL_Driver/Src/stm32h7xx_hal_rcc.c **** 
 357              		.loc 1 353 3 view .LVU141
 358 013c 2A64     		str	r2, [r5, #64]
ARM GAS  /tmp/ccLdxC59.s 			page 16


 356:Drivers/STM32H7xx_HAL_Driver/Src/stm32h7xx_hal_rcc.c **** 
 359              		.loc 1 356 3 view .LVU142
 360 013e 6B64     		str	r3, [r5, #68]
 359:Drivers/STM32H7xx_HAL_Driver/Src/stm32h7xx_hal_rcc.c **** 
 361              		.loc 1 359 3 view .LVU143
 362 0140 2968     		ldr	r1, [r5]
 371:Drivers/STM32H7xx_HAL_Driver/Src/stm32h7xx_hal_rcc.c ****   {
 363              		.loc 1 371 31 is_stmt 0 view .LVU144
 364 0142 0E4A     		ldr	r2, .L29
 359:Drivers/STM32H7xx_HAL_Driver/Src/stm32h7xx_hal_rcc.c **** 
 365              		.loc 1 359 3 view .LVU145
 366 0144 21F48021 		bic	r1, r1, #262144
 367 0148 2960     		str	r1, [r5]
 362:Drivers/STM32H7xx_HAL_Driver/Src/stm32h7xx_hal_rcc.c **** 
 368              		.loc 1 362 3 is_stmt 1 view .LVU146
 369 014a 2B66     		str	r3, [r5, #96]
 365:Drivers/STM32H7xx_HAL_Driver/Src/stm32h7xx_hal_rcc.c **** 
 370              		.loc 1 365 3 view .LVU147
 371 014c A866     		str	r0, [r5, #104]
 368:Drivers/STM32H7xx_HAL_Driver/Src/stm32h7xx_hal_rcc.c **** 
 372              		.loc 1 368 3 view .LVU148
 373 014e D5F8D030 		ldr	r3, [r5, #208]
 374 0152 43F48033 		orr	r3, r3, #65536
 375 0156 C5F8D030 		str	r3, [r5, #208]
 371:Drivers/STM32H7xx_HAL_Driver/Src/stm32h7xx_hal_rcc.c ****   {
 376              		.loc 1 371 3 view .LVU149
 371:Drivers/STM32H7xx_HAL_Driver/Src/stm32h7xx_hal_rcc.c ****   {
 377              		.loc 1 371 31 is_stmt 0 view .LVU150
 378 015a 1368     		ldr	r3, [r2]
 371:Drivers/STM32H7xx_HAL_Driver/Src/stm32h7xx_hal_rcc.c ****   {
 379              		.loc 1 371 5 view .LVU151
 380 015c 1B07     		lsls	r3, r3, #28
 381 015e 85D5     		bpl	.L5
 374:Drivers/STM32H7xx_HAL_Driver/Src/stm32h7xx_hal_rcc.c **** 
 382              		.loc 1 374 5 is_stmt 1 view .LVU152
 383 0160 1368     		ldr	r3, [r2]
 384 0162 23F00F03 		bic	r3, r3, #15
 385 0166 43F00703 		orr	r3, r3, #7
 386 016a 1360     		str	r3, [r2]
 378:Drivers/STM32H7xx_HAL_Driver/Src/stm32h7xx_hal_rcc.c ****     {
 387              		.loc 1 378 5 view .LVU153
 378:Drivers/STM32H7xx_HAL_Driver/Src/stm32h7xx_hal_rcc.c ****     {
 388              		.loc 1 378 8 is_stmt 0 view .LVU154
 389 016c 1468     		ldr	r4, [r2]
 390 016e 04F00F04 		and	r4, r4, #15
 204:Drivers/STM32H7xx_HAL_Driver/Src/stm32h7xx_hal_rcc.c ****     }
 391              		.loc 1 204 14 view .LVU155
 392 0172 073C     		subs	r4, r4, #7
 393 0174 18BF     		it	ne
 394 0176 0124     		movne	r4, #1
 395 0178 78E7     		b	.L5
 396              	.L30:
 397 017a 00BF     		.align	2
 398              	.L29:
 399 017c 00200052 		.word	1375739904
 400 0180 00440258 		.word	1476543488
 401 0184 00000000 		.word	uwTickPrio
ARM GAS  /tmp/ccLdxC59.s 			page 17


 402 0188 0090D003 		.word	64000000
 403 018c 00000000 		.word	SystemCoreClock
 404 0190 00000000 		.word	SystemD2Clock
 405 0194 45EDF6FF 		.word	-594619
 406 0198 80020101 		.word	16843392
 407 019c 0000FF01 		.word	33488896
 408 01a0 00020202 		.word	33686016
 409              		.cfi_endproc
 410              	.LFE141:
 412              		.section	.text.HAL_RCC_OscConfig,"ax",%progbits
 413              		.align	1
 414              		.p2align 2,,3
 415              		.weak	HAL_RCC_OscConfig
 416              		.syntax unified
 417              		.thumb
 418              		.thumb_func
 419              		.fpu fpv5-d16
 421              	HAL_RCC_OscConfig:
 422              	.LVL27:
 423              	.LFB142:
 387:Drivers/STM32H7xx_HAL_Driver/Src/stm32h7xx_hal_rcc.c **** 
 388:Drivers/STM32H7xx_HAL_Driver/Src/stm32h7xx_hal_rcc.c **** /**
 389:Drivers/STM32H7xx_HAL_Driver/Src/stm32h7xx_hal_rcc.c ****   * @brief  Initializes the RCC Oscillators according to the specified parameters in the
 390:Drivers/STM32H7xx_HAL_Driver/Src/stm32h7xx_hal_rcc.c ****   *         RCC_OscInitTypeDef.
 391:Drivers/STM32H7xx_HAL_Driver/Src/stm32h7xx_hal_rcc.c ****   * @param  RCC_OscInitStruct: pointer to an RCC_OscInitTypeDef structure that
 392:Drivers/STM32H7xx_HAL_Driver/Src/stm32h7xx_hal_rcc.c ****   *         contains the configuration information for the RCC Oscillators.
 393:Drivers/STM32H7xx_HAL_Driver/Src/stm32h7xx_hal_rcc.c ****   * @note   The PLL is not disabled when used as system clock.
 394:Drivers/STM32H7xx_HAL_Driver/Src/stm32h7xx_hal_rcc.c ****   * @note   Transitions LSE Bypass to LSE On and LSE On to LSE Bypass are not
 395:Drivers/STM32H7xx_HAL_Driver/Src/stm32h7xx_hal_rcc.c ****   *         supported by this function. User should request a transition to LSE Off
 396:Drivers/STM32H7xx_HAL_Driver/Src/stm32h7xx_hal_rcc.c ****   *         first and then LSE On or LSE Bypass.
 397:Drivers/STM32H7xx_HAL_Driver/Src/stm32h7xx_hal_rcc.c ****   * @note   Transition HSE Bypass to HSE On and HSE On to HSE Bypass are not
 398:Drivers/STM32H7xx_HAL_Driver/Src/stm32h7xx_hal_rcc.c ****   *         supported by this function. User should request a transition to HSE Off
 399:Drivers/STM32H7xx_HAL_Driver/Src/stm32h7xx_hal_rcc.c ****   *         first and then HSE On or HSE Bypass.
 400:Drivers/STM32H7xx_HAL_Driver/Src/stm32h7xx_hal_rcc.c ****   * @retval HAL status
 401:Drivers/STM32H7xx_HAL_Driver/Src/stm32h7xx_hal_rcc.c ****   */
 402:Drivers/STM32H7xx_HAL_Driver/Src/stm32h7xx_hal_rcc.c **** __weak HAL_StatusTypeDef HAL_RCC_OscConfig(RCC_OscInitTypeDef  *RCC_OscInitStruct)
 403:Drivers/STM32H7xx_HAL_Driver/Src/stm32h7xx_hal_rcc.c **** {
 424              		.loc 1 403 1 is_stmt 1 view -0
 425              		.cfi_startproc
 426              		@ args = 0, pretend = 0, frame = 0
 427              		@ frame_needed = 0, uses_anonymous_args = 0
 404:Drivers/STM32H7xx_HAL_Driver/Src/stm32h7xx_hal_rcc.c ****   uint32_t tickstart;
 428              		.loc 1 404 3 view .LVU157
 405:Drivers/STM32H7xx_HAL_Driver/Src/stm32h7xx_hal_rcc.c ****   uint32_t temp1_pllckcfg, temp2_pllckcfg;
 429              		.loc 1 405 3 view .LVU158
 406:Drivers/STM32H7xx_HAL_Driver/Src/stm32h7xx_hal_rcc.c **** 
 407:Drivers/STM32H7xx_HAL_Driver/Src/stm32h7xx_hal_rcc.c ****     /* Check Null pointer */
 408:Drivers/STM32H7xx_HAL_Driver/Src/stm32h7xx_hal_rcc.c ****   if(RCC_OscInitStruct == NULL)
 430              		.loc 1 408 3 view .LVU159
 431              		.loc 1 408 5 is_stmt 0 view .LVU160
 432 0000 0028     		cmp	r0, #0
 433 0002 00F0E381 		beq	.L157
 409:Drivers/STM32H7xx_HAL_Driver/Src/stm32h7xx_hal_rcc.c ****   {
 410:Drivers/STM32H7xx_HAL_Driver/Src/stm32h7xx_hal_rcc.c ****     return HAL_ERROR;
 411:Drivers/STM32H7xx_HAL_Driver/Src/stm32h7xx_hal_rcc.c ****   }
 412:Drivers/STM32H7xx_HAL_Driver/Src/stm32h7xx_hal_rcc.c **** 
 413:Drivers/STM32H7xx_HAL_Driver/Src/stm32h7xx_hal_rcc.c ****   /* Check the parameters */
ARM GAS  /tmp/ccLdxC59.s 			page 18


 414:Drivers/STM32H7xx_HAL_Driver/Src/stm32h7xx_hal_rcc.c ****   assert_param(IS_RCC_OSCILLATORTYPE(RCC_OscInitStruct->OscillatorType));
 434              		.loc 1 414 3 is_stmt 1 view .LVU161
 415:Drivers/STM32H7xx_HAL_Driver/Src/stm32h7xx_hal_rcc.c ****   /*------------------------------- HSE Configuration ------------------------*/
 416:Drivers/STM32H7xx_HAL_Driver/Src/stm32h7xx_hal_rcc.c ****   if(((RCC_OscInitStruct->OscillatorType) & RCC_OSCILLATORTYPE_HSE) == RCC_OSCILLATORTYPE_HSE)
 435              		.loc 1 416 3 view .LVU162
 403:Drivers/STM32H7xx_HAL_Driver/Src/stm32h7xx_hal_rcc.c ****   uint32_t tickstart;
 436              		.loc 1 403 1 is_stmt 0 view .LVU163
 437 0006 F8B5     		push	{r3, r4, r5, r6, r7, lr}
 438              	.LCFI1:
 439              		.cfi_def_cfa_offset 24
 440              		.cfi_offset 3, -24
 441              		.cfi_offset 4, -20
 442              		.cfi_offset 5, -16
 443              		.cfi_offset 6, -12
 444              		.cfi_offset 7, -8
 445              		.cfi_offset 14, -4
 446              		.loc 1 416 25 view .LVU164
 447 0008 0368     		ldr	r3, [r0]
 448 000a 0446     		mov	r4, r0
 449              		.loc 1 416 5 view .LVU165
 450 000c D907     		lsls	r1, r3, #31
 451 000e 2ED5     		bpl	.L34
 452              	.LBB2:
 417:Drivers/STM32H7xx_HAL_Driver/Src/stm32h7xx_hal_rcc.c ****   {
 418:Drivers/STM32H7xx_HAL_Driver/Src/stm32h7xx_hal_rcc.c ****     /* Check the parameters */
 419:Drivers/STM32H7xx_HAL_Driver/Src/stm32h7xx_hal_rcc.c ****     assert_param(IS_RCC_HSE(RCC_OscInitStruct->HSEState));
 453              		.loc 1 419 5 is_stmt 1 view .LVU166
 420:Drivers/STM32H7xx_HAL_Driver/Src/stm32h7xx_hal_rcc.c **** 
 421:Drivers/STM32H7xx_HAL_Driver/Src/stm32h7xx_hal_rcc.c ****     const uint32_t temp_sysclksrc = __HAL_RCC_GET_SYSCLK_SOURCE();
 454              		.loc 1 421 5 view .LVU167
 455              		.loc 1 421 37 is_stmt 0 view .LVU168
 456 0010 AF49     		ldr	r1, .L169
 457 0012 0A69     		ldr	r2, [r1, #16]
 422:Drivers/STM32H7xx_HAL_Driver/Src/stm32h7xx_hal_rcc.c ****     const uint32_t temp_pllckselr = RCC->PLLCKSELR;
 458              		.loc 1 422 20 view .LVU169
 459 0014 896A     		ldr	r1, [r1, #40]
 421:Drivers/STM32H7xx_HAL_Driver/Src/stm32h7xx_hal_rcc.c ****     const uint32_t temp_pllckselr = RCC->PLLCKSELR;
 460              		.loc 1 421 20 view .LVU170
 461 0016 02F03802 		and	r2, r2, #56
 462              	.LVL28:
 463              		.loc 1 422 5 is_stmt 1 view .LVU171
 423:Drivers/STM32H7xx_HAL_Driver/Src/stm32h7xx_hal_rcc.c ****     /* When the HSE is used as system clock or clock source for PLL in these cases HSE will not dis
 424:Drivers/STM32H7xx_HAL_Driver/Src/stm32h7xx_hal_rcc.c ****     if((temp_sysclksrc == RCC_CFGR_SWS_HSE) || ((temp_sysclksrc == RCC_CFGR_SWS_PLL1) && ((temp_pll
 464              		.loc 1 424 5 view .LVU172
 465              		.loc 1 424 7 is_stmt 0 view .LVU173
 466 001a 102A     		cmp	r2, #16
 467 001c 00F02281 		beq	.L35
 468              		.loc 1 424 45 discriminator 1 view .LVU174
 469 0020 182A     		cmp	r2, #24
 470 0022 00F01A81 		beq	.L158
 471              	.LVL29:
 472              	.L36:
 425:Drivers/STM32H7xx_HAL_Driver/Src/stm32h7xx_hal_rcc.c ****     {
 426:Drivers/STM32H7xx_HAL_Driver/Src/stm32h7xx_hal_rcc.c ****       if((__HAL_RCC_GET_FLAG(RCC_FLAG_HSERDY) != 0U) && (RCC_OscInitStruct->HSEState == RCC_HSE_OFF
 427:Drivers/STM32H7xx_HAL_Driver/Src/stm32h7xx_hal_rcc.c ****       {
 428:Drivers/STM32H7xx_HAL_Driver/Src/stm32h7xx_hal_rcc.c ****         return HAL_ERROR;
 429:Drivers/STM32H7xx_HAL_Driver/Src/stm32h7xx_hal_rcc.c ****       }
ARM GAS  /tmp/ccLdxC59.s 			page 19


 430:Drivers/STM32H7xx_HAL_Driver/Src/stm32h7xx_hal_rcc.c ****     }
 431:Drivers/STM32H7xx_HAL_Driver/Src/stm32h7xx_hal_rcc.c ****     else
 432:Drivers/STM32H7xx_HAL_Driver/Src/stm32h7xx_hal_rcc.c ****     {
 433:Drivers/STM32H7xx_HAL_Driver/Src/stm32h7xx_hal_rcc.c ****       /* Set the new HSE configuration ---------------------------------------*/
 434:Drivers/STM32H7xx_HAL_Driver/Src/stm32h7xx_hal_rcc.c ****       __HAL_RCC_HSE_CONFIG(RCC_OscInitStruct->HSEState);
 473              		.loc 1 434 7 is_stmt 1 view .LVU175
 474              		.loc 1 434 7 view .LVU176
 475 0026 6368     		ldr	r3, [r4, #4]
 476 0028 B3F5803F 		cmp	r3, #65536
 477 002c 00F05D81 		beq	.L159
 478              		.loc 1 434 7 discriminator 2 view .LVU177
 479 0030 002B     		cmp	r3, #0
 480 0032 00F07281 		beq	.L160
 481              		.loc 1 434 7 discriminator 5 view .LVU178
 482 0036 B3F5A02F 		cmp	r3, #327680
 483 003a A54B     		ldr	r3, .L169
 484 003c 1A68     		ldr	r2, [r3]
 485              	.LVL30:
 486              		.loc 1 434 7 is_stmt 0 discriminator 5 view .LVU179
 487 003e 00F06282 		beq	.L161
 488              		.loc 1 434 7 is_stmt 1 discriminator 8 view .LVU180
 489 0042 22F48032 		bic	r2, r2, #65536
 490 0046 1A60     		str	r2, [r3]
 491              		.loc 1 434 7 discriminator 8 view .LVU181
 492 0048 1A68     		ldr	r2, [r3]
 493 004a 22F48022 		bic	r2, r2, #262144
 494 004e 1A60     		str	r2, [r3]
 495              	.L39:
 435:Drivers/STM32H7xx_HAL_Driver/Src/stm32h7xx_hal_rcc.c **** 
 436:Drivers/STM32H7xx_HAL_Driver/Src/stm32h7xx_hal_rcc.c ****       /* Check the HSE State */
 437:Drivers/STM32H7xx_HAL_Driver/Src/stm32h7xx_hal_rcc.c ****       if(RCC_OscInitStruct->HSEState != RCC_HSE_OFF)
 438:Drivers/STM32H7xx_HAL_Driver/Src/stm32h7xx_hal_rcc.c ****       {
 439:Drivers/STM32H7xx_HAL_Driver/Src/stm32h7xx_hal_rcc.c ****         /* Get Start Tick*/
 440:Drivers/STM32H7xx_HAL_Driver/Src/stm32h7xx_hal_rcc.c ****         tickstart = HAL_GetTick();
 496              		.loc 1 440 9 view .LVU182
 497              		.loc 1 440 21 is_stmt 0 view .LVU183
 498 0050 FFF7FEFF 		bl	HAL_GetTick
 499              	.LVL31:
 441:Drivers/STM32H7xx_HAL_Driver/Src/stm32h7xx_hal_rcc.c **** 
 442:Drivers/STM32H7xx_HAL_Driver/Src/stm32h7xx_hal_rcc.c ****         /* Wait till HSE is ready */
 443:Drivers/STM32H7xx_HAL_Driver/Src/stm32h7xx_hal_rcc.c ****         while(__HAL_RCC_GET_FLAG(RCC_FLAG_HSERDY) == 0U)
 500              		.loc 1 443 15 view .LVU184
 501 0054 9E4E     		ldr	r6, .L169
 440:Drivers/STM32H7xx_HAL_Driver/Src/stm32h7xx_hal_rcc.c **** 
 502              		.loc 1 440 21 view .LVU185
 503 0056 0546     		mov	r5, r0
 504              	.LVL32:
 505              		.loc 1 443 9 is_stmt 1 view .LVU186
 506              		.loc 1 443 14 is_stmt 0 view .LVU187
 507 0058 05E0     		b	.L44
 508              	.LVL33:
 509              	.L45:
 444:Drivers/STM32H7xx_HAL_Driver/Src/stm32h7xx_hal_rcc.c ****         {
 445:Drivers/STM32H7xx_HAL_Driver/Src/stm32h7xx_hal_rcc.c ****           if((uint32_t) (HAL_GetTick() - tickstart ) > HSE_TIMEOUT_VALUE)
 510              		.loc 1 445 26 view .LVU188
 511 005a FFF7FEFF 		bl	HAL_GetTick
 512              	.LVL34:
ARM GAS  /tmp/ccLdxC59.s 			page 20


 513              		.loc 1 445 40 view .LVU189
 514 005e 401B     		subs	r0, r0, r5
 515              		.loc 1 445 13 view .LVU190
 516 0060 6428     		cmp	r0, #100
 517 0062 00F25881 		bhi	.L46
 518              	.L44:
 519              		.loc 1 445 11 is_stmt 1 view .LVU191
 443:Drivers/STM32H7xx_HAL_Driver/Src/stm32h7xx_hal_rcc.c ****         {
 520              		.loc 1 443 14 view .LVU192
 443:Drivers/STM32H7xx_HAL_Driver/Src/stm32h7xx_hal_rcc.c ****         {
 521              		.loc 1 443 15 is_stmt 0 view .LVU193
 522 0066 3368     		ldr	r3, [r6]
 443:Drivers/STM32H7xx_HAL_Driver/Src/stm32h7xx_hal_rcc.c ****         {
 523              		.loc 1 443 14 view .LVU194
 524 0068 9F03     		lsls	r7, r3, #14
 525 006a F6D5     		bpl	.L45
 526              	.L154:
 443:Drivers/STM32H7xx_HAL_Driver/Src/stm32h7xx_hal_rcc.c ****         {
 527              		.loc 1 443 14 view .LVU195
 528 006c 2368     		ldr	r3, [r4]
 529              	.LVL35:
 530              	.L34:
 443:Drivers/STM32H7xx_HAL_Driver/Src/stm32h7xx_hal_rcc.c ****         {
 531              		.loc 1 443 14 view .LVU196
 532              	.LBE2:
 446:Drivers/STM32H7xx_HAL_Driver/Src/stm32h7xx_hal_rcc.c ****           {
 447:Drivers/STM32H7xx_HAL_Driver/Src/stm32h7xx_hal_rcc.c ****             return HAL_TIMEOUT;
 448:Drivers/STM32H7xx_HAL_Driver/Src/stm32h7xx_hal_rcc.c ****           }
 449:Drivers/STM32H7xx_HAL_Driver/Src/stm32h7xx_hal_rcc.c ****         }
 450:Drivers/STM32H7xx_HAL_Driver/Src/stm32h7xx_hal_rcc.c ****       }
 451:Drivers/STM32H7xx_HAL_Driver/Src/stm32h7xx_hal_rcc.c ****       else
 452:Drivers/STM32H7xx_HAL_Driver/Src/stm32h7xx_hal_rcc.c ****       {
 453:Drivers/STM32H7xx_HAL_Driver/Src/stm32h7xx_hal_rcc.c ****         /* Get Start Tick*/
 454:Drivers/STM32H7xx_HAL_Driver/Src/stm32h7xx_hal_rcc.c ****         tickstart = HAL_GetTick();
 455:Drivers/STM32H7xx_HAL_Driver/Src/stm32h7xx_hal_rcc.c **** 
 456:Drivers/STM32H7xx_HAL_Driver/Src/stm32h7xx_hal_rcc.c ****         /* Wait till HSE is disabled */
 457:Drivers/STM32H7xx_HAL_Driver/Src/stm32h7xx_hal_rcc.c ****         while(__HAL_RCC_GET_FLAG(RCC_FLAG_HSERDY) != 0U)
 458:Drivers/STM32H7xx_HAL_Driver/Src/stm32h7xx_hal_rcc.c ****         {
 459:Drivers/STM32H7xx_HAL_Driver/Src/stm32h7xx_hal_rcc.c ****           if((uint32_t) (HAL_GetTick() - tickstart ) > HSE_TIMEOUT_VALUE)
 460:Drivers/STM32H7xx_HAL_Driver/Src/stm32h7xx_hal_rcc.c ****           {
 461:Drivers/STM32H7xx_HAL_Driver/Src/stm32h7xx_hal_rcc.c ****             return HAL_TIMEOUT;
 462:Drivers/STM32H7xx_HAL_Driver/Src/stm32h7xx_hal_rcc.c ****           }
 463:Drivers/STM32H7xx_HAL_Driver/Src/stm32h7xx_hal_rcc.c ****         }
 464:Drivers/STM32H7xx_HAL_Driver/Src/stm32h7xx_hal_rcc.c ****       }
 465:Drivers/STM32H7xx_HAL_Driver/Src/stm32h7xx_hal_rcc.c ****     }
 466:Drivers/STM32H7xx_HAL_Driver/Src/stm32h7xx_hal_rcc.c ****   }
 467:Drivers/STM32H7xx_HAL_Driver/Src/stm32h7xx_hal_rcc.c ****   /*----------------------------- HSI Configuration --------------------------*/
 468:Drivers/STM32H7xx_HAL_Driver/Src/stm32h7xx_hal_rcc.c ****   if(((RCC_OscInitStruct->OscillatorType) & RCC_OSCILLATORTYPE_HSI) == RCC_OSCILLATORTYPE_HSI)
 533              		.loc 1 468 3 is_stmt 1 view .LVU197
 534              		.loc 1 468 5 is_stmt 0 view .LVU198
 535 006e 9907     		lsls	r1, r3, #30
 536 0070 30D5     		bpl	.L48
 537              	.LBB3:
 469:Drivers/STM32H7xx_HAL_Driver/Src/stm32h7xx_hal_rcc.c ****   {
 470:Drivers/STM32H7xx_HAL_Driver/Src/stm32h7xx_hal_rcc.c ****     /* Check the parameters */
 471:Drivers/STM32H7xx_HAL_Driver/Src/stm32h7xx_hal_rcc.c ****     assert_param(IS_RCC_HSI(RCC_OscInitStruct->HSIState));
 538              		.loc 1 471 5 is_stmt 1 view .LVU199
ARM GAS  /tmp/ccLdxC59.s 			page 21


 472:Drivers/STM32H7xx_HAL_Driver/Src/stm32h7xx_hal_rcc.c ****     assert_param(IS_RCC_HSICALIBRATION_VALUE(RCC_OscInitStruct->HSICalibrationValue));
 539              		.loc 1 472 5 view .LVU200
 473:Drivers/STM32H7xx_HAL_Driver/Src/stm32h7xx_hal_rcc.c **** 
 474:Drivers/STM32H7xx_HAL_Driver/Src/stm32h7xx_hal_rcc.c ****     /* When the HSI is used as system clock it will not be disabled */
 475:Drivers/STM32H7xx_HAL_Driver/Src/stm32h7xx_hal_rcc.c ****     const uint32_t temp_sysclksrc = __HAL_RCC_GET_SYSCLK_SOURCE();
 540              		.loc 1 475 5 view .LVU201
 541              		.loc 1 475 37 is_stmt 0 view .LVU202
 542 0072 974A     		ldr	r2, .L169
 543 0074 1369     		ldr	r3, [r2, #16]
 544              	.LVL36:
 476:Drivers/STM32H7xx_HAL_Driver/Src/stm32h7xx_hal_rcc.c ****     const uint32_t temp_pllckselr = RCC->PLLCKSELR;
 545              		.loc 1 476 5 is_stmt 1 view .LVU203
 546              		.loc 1 476 20 is_stmt 0 view .LVU204
 547 0076 926A     		ldr	r2, [r2, #40]
 548              	.LVL37:
 477:Drivers/STM32H7xx_HAL_Driver/Src/stm32h7xx_hal_rcc.c ****     if((temp_sysclksrc == RCC_CFGR_SWS_HSI) || ((temp_sysclksrc == RCC_CFGR_SWS_PLL1) && ((temp_pll
 549              		.loc 1 477 5 is_stmt 1 view .LVU205
 550              		.loc 1 477 7 is_stmt 0 view .LVU206
 551 0078 13F03803 		ands	r3, r3, #56
 552              	.LVL38:
 553              		.loc 1 477 7 view .LVU207
 554 007c 00F0B680 		beq	.L49
 555              		.loc 1 477 45 discriminator 1 view .LVU208
 556 0080 182B     		cmp	r3, #24
 557 0082 00F0B080 		beq	.L162
 558              	.LVL39:
 559              	.L50:
 478:Drivers/STM32H7xx_HAL_Driver/Src/stm32h7xx_hal_rcc.c ****     {
 479:Drivers/STM32H7xx_HAL_Driver/Src/stm32h7xx_hal_rcc.c ****       /* When HSI is used as system clock it will not be disabled */
 480:Drivers/STM32H7xx_HAL_Driver/Src/stm32h7xx_hal_rcc.c ****       if((__HAL_RCC_GET_FLAG(RCC_FLAG_HSIRDY) != 0U) && (RCC_OscInitStruct->HSIState == RCC_HSI_OFF
 481:Drivers/STM32H7xx_HAL_Driver/Src/stm32h7xx_hal_rcc.c ****       {
 482:Drivers/STM32H7xx_HAL_Driver/Src/stm32h7xx_hal_rcc.c ****         return HAL_ERROR;
 483:Drivers/STM32H7xx_HAL_Driver/Src/stm32h7xx_hal_rcc.c ****       }
 484:Drivers/STM32H7xx_HAL_Driver/Src/stm32h7xx_hal_rcc.c ****       /* Otherwise, just the calibration is allowed */
 485:Drivers/STM32H7xx_HAL_Driver/Src/stm32h7xx_hal_rcc.c ****       else
 486:Drivers/STM32H7xx_HAL_Driver/Src/stm32h7xx_hal_rcc.c ****       {
 487:Drivers/STM32H7xx_HAL_Driver/Src/stm32h7xx_hal_rcc.c ****         /* Adjusts the Internal High Speed oscillator (HSI) calibration value.*/
 488:Drivers/STM32H7xx_HAL_Driver/Src/stm32h7xx_hal_rcc.c ****         __HAL_RCC_HSI_CALIBRATIONVALUE_ADJUST(RCC_OscInitStruct->HSICalibrationValue);
 489:Drivers/STM32H7xx_HAL_Driver/Src/stm32h7xx_hal_rcc.c ****       }
 490:Drivers/STM32H7xx_HAL_Driver/Src/stm32h7xx_hal_rcc.c ****     }
 491:Drivers/STM32H7xx_HAL_Driver/Src/stm32h7xx_hal_rcc.c **** 
 492:Drivers/STM32H7xx_HAL_Driver/Src/stm32h7xx_hal_rcc.c ****     else
 493:Drivers/STM32H7xx_HAL_Driver/Src/stm32h7xx_hal_rcc.c ****     {
 494:Drivers/STM32H7xx_HAL_Driver/Src/stm32h7xx_hal_rcc.c ****       /* Check the HSI State */
 495:Drivers/STM32H7xx_HAL_Driver/Src/stm32h7xx_hal_rcc.c ****       if((RCC_OscInitStruct->HSIState)!= RCC_HSI_OFF)
 560              		.loc 1 495 7 is_stmt 1 view .LVU209
 561              		.loc 1 495 28 is_stmt 0 view .LVU210
 562 0086 E268     		ldr	r2, [r4, #12]
 563              		.loc 1 495 9 view .LVU211
 564 0088 002A     		cmp	r2, #0
 565 008a 00F08B81 		beq	.L53
 496:Drivers/STM32H7xx_HAL_Driver/Src/stm32h7xx_hal_rcc.c ****       {
 497:Drivers/STM32H7xx_HAL_Driver/Src/stm32h7xx_hal_rcc.c ****      /* Enable the Internal High Speed oscillator (HSI, HSIDIV2,HSIDIV4, or HSIDIV8) */
 498:Drivers/STM32H7xx_HAL_Driver/Src/stm32h7xx_hal_rcc.c ****         __HAL_RCC_HSI_CONFIG(RCC_OscInitStruct->HSIState);
 566              		.loc 1 498 9 is_stmt 1 view .LVU212
 567 008e 9049     		ldr	r1, .L169
 568 0090 0B68     		ldr	r3, [r1]
ARM GAS  /tmp/ccLdxC59.s 			page 22


 569              	.LVL40:
 499:Drivers/STM32H7xx_HAL_Driver/Src/stm32h7xx_hal_rcc.c **** 
 500:Drivers/STM32H7xx_HAL_Driver/Src/stm32h7xx_hal_rcc.c ****         /* Get Start Tick*/
 501:Drivers/STM32H7xx_HAL_Driver/Src/stm32h7xx_hal_rcc.c ****         tickstart = HAL_GetTick();
 502:Drivers/STM32H7xx_HAL_Driver/Src/stm32h7xx_hal_rcc.c **** 
 503:Drivers/STM32H7xx_HAL_Driver/Src/stm32h7xx_hal_rcc.c ****         /* Wait till HSI is ready */
 504:Drivers/STM32H7xx_HAL_Driver/Src/stm32h7xx_hal_rcc.c ****         while(__HAL_RCC_GET_FLAG(RCC_FLAG_HSIRDY) == 0U)
 570              		.loc 1 504 15 is_stmt 0 view .LVU213
 571 0092 0E46     		mov	r6, r1
 498:Drivers/STM32H7xx_HAL_Driver/Src/stm32h7xx_hal_rcc.c **** 
 572              		.loc 1 498 9 view .LVU214
 573 0094 23F01903 		bic	r3, r3, #25
 574 0098 1343     		orrs	r3, r3, r2
 575 009a 0B60     		str	r3, [r1]
 501:Drivers/STM32H7xx_HAL_Driver/Src/stm32h7xx_hal_rcc.c **** 
 576              		.loc 1 501 9 is_stmt 1 view .LVU215
 501:Drivers/STM32H7xx_HAL_Driver/Src/stm32h7xx_hal_rcc.c **** 
 577              		.loc 1 501 21 is_stmt 0 view .LVU216
 578 009c FFF7FEFF 		bl	HAL_GetTick
 579              	.LVL41:
 580 00a0 0546     		mov	r5, r0
 581              	.LVL42:
 582              		.loc 1 504 9 is_stmt 1 view .LVU217
 583              		.loc 1 504 14 is_stmt 0 view .LVU218
 584 00a2 05E0     		b	.L54
 585              	.LVL43:
 586              	.L55:
 505:Drivers/STM32H7xx_HAL_Driver/Src/stm32h7xx_hal_rcc.c ****         {
 506:Drivers/STM32H7xx_HAL_Driver/Src/stm32h7xx_hal_rcc.c ****           if((HAL_GetTick() - tickstart ) > HSI_TIMEOUT_VALUE)
 587              		.loc 1 506 15 view .LVU219
 588 00a4 FFF7FEFF 		bl	HAL_GetTick
 589              	.LVL44:
 590              		.loc 1 506 29 view .LVU220
 591 00a8 401B     		subs	r0, r0, r5
 592              		.loc 1 506 13 view .LVU221
 593 00aa 0228     		cmp	r0, #2
 594 00ac 00F23381 		bhi	.L46
 595              	.L54:
 596              		.loc 1 506 11 is_stmt 1 view .LVU222
 504:Drivers/STM32H7xx_HAL_Driver/Src/stm32h7xx_hal_rcc.c ****         {
 597              		.loc 1 504 14 view .LVU223
 504:Drivers/STM32H7xx_HAL_Driver/Src/stm32h7xx_hal_rcc.c ****         {
 598              		.loc 1 504 15 is_stmt 0 view .LVU224
 599 00b0 3368     		ldr	r3, [r6]
 504:Drivers/STM32H7xx_HAL_Driver/Src/stm32h7xx_hal_rcc.c ****         {
 600              		.loc 1 504 14 view .LVU225
 601 00b2 5F07     		lsls	r7, r3, #29
 602 00b4 F6D5     		bpl	.L55
 507:Drivers/STM32H7xx_HAL_Driver/Src/stm32h7xx_hal_rcc.c ****           {
 508:Drivers/STM32H7xx_HAL_Driver/Src/stm32h7xx_hal_rcc.c ****             return HAL_TIMEOUT;
 509:Drivers/STM32H7xx_HAL_Driver/Src/stm32h7xx_hal_rcc.c ****           }
 510:Drivers/STM32H7xx_HAL_Driver/Src/stm32h7xx_hal_rcc.c ****         }
 511:Drivers/STM32H7xx_HAL_Driver/Src/stm32h7xx_hal_rcc.c **** 
 512:Drivers/STM32H7xx_HAL_Driver/Src/stm32h7xx_hal_rcc.c ****         /* Adjusts the Internal High Speed oscillator (HSI) calibration value.*/
 513:Drivers/STM32H7xx_HAL_Driver/Src/stm32h7xx_hal_rcc.c ****         __HAL_RCC_HSI_CALIBRATIONVALUE_ADJUST(RCC_OscInitStruct->HSICalibrationValue);
 603              		.loc 1 513 9 is_stmt 1 view .LVU226
 604              		.loc 1 513 9 view .LVU227
ARM GAS  /tmp/ccLdxC59.s 			page 23


 605 00b6 FFF7FEFF 		bl	HAL_GetREVID
 606              	.LVL45:
 607 00ba 41F20303 		movw	r3, #4099
 608 00be 2269     		ldr	r2, [r4, #16]
 609 00c0 9842     		cmp	r0, r3
 610 00c2 7368     		ldr	r3, [r6, #4]
 611 00c4 00F24A82 		bhi	.L56
 612              		.loc 1 513 9 discriminator 1 view .LVU228
 613 00c8 23F47C33 		bic	r3, r3, #258048
 614 00cc 43EA0233 		orr	r3, r3, r2, lsl #12
 615 00d0 7360     		str	r3, [r6, #4]
 616 00d2 2368     		ldr	r3, [r4]
 617              	.LVL46:
 618              	.L48:
 619              		.loc 1 513 9 is_stmt 0 discriminator 1 view .LVU229
 620              	.LBE3:
 514:Drivers/STM32H7xx_HAL_Driver/Src/stm32h7xx_hal_rcc.c ****       }
 515:Drivers/STM32H7xx_HAL_Driver/Src/stm32h7xx_hal_rcc.c ****       else
 516:Drivers/STM32H7xx_HAL_Driver/Src/stm32h7xx_hal_rcc.c ****       {
 517:Drivers/STM32H7xx_HAL_Driver/Src/stm32h7xx_hal_rcc.c ****         /* Disable the Internal High Speed oscillator (HSI). */
 518:Drivers/STM32H7xx_HAL_Driver/Src/stm32h7xx_hal_rcc.c ****         __HAL_RCC_HSI_DISABLE();
 519:Drivers/STM32H7xx_HAL_Driver/Src/stm32h7xx_hal_rcc.c **** 
 520:Drivers/STM32H7xx_HAL_Driver/Src/stm32h7xx_hal_rcc.c ****         /* Get Start Tick*/
 521:Drivers/STM32H7xx_HAL_Driver/Src/stm32h7xx_hal_rcc.c ****         tickstart = HAL_GetTick();
 522:Drivers/STM32H7xx_HAL_Driver/Src/stm32h7xx_hal_rcc.c **** 
 523:Drivers/STM32H7xx_HAL_Driver/Src/stm32h7xx_hal_rcc.c ****         /* Wait till HSI is disabled */
 524:Drivers/STM32H7xx_HAL_Driver/Src/stm32h7xx_hal_rcc.c ****         while(__HAL_RCC_GET_FLAG(RCC_FLAG_HSIRDY) != 0U)
 525:Drivers/STM32H7xx_HAL_Driver/Src/stm32h7xx_hal_rcc.c ****         {
 526:Drivers/STM32H7xx_HAL_Driver/Src/stm32h7xx_hal_rcc.c ****           if((HAL_GetTick() - tickstart ) > HSI_TIMEOUT_VALUE)
 527:Drivers/STM32H7xx_HAL_Driver/Src/stm32h7xx_hal_rcc.c ****           {
 528:Drivers/STM32H7xx_HAL_Driver/Src/stm32h7xx_hal_rcc.c ****             return HAL_TIMEOUT;
 529:Drivers/STM32H7xx_HAL_Driver/Src/stm32h7xx_hal_rcc.c ****           }
 530:Drivers/STM32H7xx_HAL_Driver/Src/stm32h7xx_hal_rcc.c ****         }
 531:Drivers/STM32H7xx_HAL_Driver/Src/stm32h7xx_hal_rcc.c ****       }
 532:Drivers/STM32H7xx_HAL_Driver/Src/stm32h7xx_hal_rcc.c ****     }
 533:Drivers/STM32H7xx_HAL_Driver/Src/stm32h7xx_hal_rcc.c ****   }
 534:Drivers/STM32H7xx_HAL_Driver/Src/stm32h7xx_hal_rcc.c ****   /*----------------------------- CSI Configuration --------------------------*/
 535:Drivers/STM32H7xx_HAL_Driver/Src/stm32h7xx_hal_rcc.c ****   if(((RCC_OscInitStruct->OscillatorType) & RCC_OSCILLATORTYPE_CSI) == RCC_OSCILLATORTYPE_CSI)
 621              		.loc 1 535 3 is_stmt 1 view .LVU230
 622              		.loc 1 535 5 is_stmt 0 view .LVU231
 623 00d4 D906     		lsls	r1, r3, #27
 624 00d6 56D4     		bmi	.L163
 625              	.L59:
 536:Drivers/STM32H7xx_HAL_Driver/Src/stm32h7xx_hal_rcc.c ****   {
 537:Drivers/STM32H7xx_HAL_Driver/Src/stm32h7xx_hal_rcc.c ****     /* Check the parameters */
 538:Drivers/STM32H7xx_HAL_Driver/Src/stm32h7xx_hal_rcc.c ****     assert_param(IS_RCC_CSI(RCC_OscInitStruct->CSIState));
 539:Drivers/STM32H7xx_HAL_Driver/Src/stm32h7xx_hal_rcc.c ****     assert_param(IS_RCC_CSICALIBRATION_VALUE(RCC_OscInitStruct->CSICalibrationValue));
 540:Drivers/STM32H7xx_HAL_Driver/Src/stm32h7xx_hal_rcc.c **** 
 541:Drivers/STM32H7xx_HAL_Driver/Src/stm32h7xx_hal_rcc.c ****     /* When the CSI is used as system clock it will not disabled */
 542:Drivers/STM32H7xx_HAL_Driver/Src/stm32h7xx_hal_rcc.c ****     const uint32_t temp_sysclksrc = __HAL_RCC_GET_SYSCLK_SOURCE();
 543:Drivers/STM32H7xx_HAL_Driver/Src/stm32h7xx_hal_rcc.c ****     const uint32_t temp_pllckselr = RCC->PLLCKSELR;
 544:Drivers/STM32H7xx_HAL_Driver/Src/stm32h7xx_hal_rcc.c ****     if((temp_sysclksrc == RCC_CFGR_SWS_CSI) || ((temp_sysclksrc == RCC_CFGR_SWS_PLL1) && ((temp_pll
 545:Drivers/STM32H7xx_HAL_Driver/Src/stm32h7xx_hal_rcc.c ****     {
 546:Drivers/STM32H7xx_HAL_Driver/Src/stm32h7xx_hal_rcc.c ****       /* When CSI is used as system clock it will not disabled */
 547:Drivers/STM32H7xx_HAL_Driver/Src/stm32h7xx_hal_rcc.c ****       if((__HAL_RCC_GET_FLAG(RCC_FLAG_CSIRDY) != 0U) && (RCC_OscInitStruct->CSIState != RCC_CSI_ON)
 548:Drivers/STM32H7xx_HAL_Driver/Src/stm32h7xx_hal_rcc.c ****       {
 549:Drivers/STM32H7xx_HAL_Driver/Src/stm32h7xx_hal_rcc.c ****         return HAL_ERROR;
ARM GAS  /tmp/ccLdxC59.s 			page 24


 550:Drivers/STM32H7xx_HAL_Driver/Src/stm32h7xx_hal_rcc.c ****       }
 551:Drivers/STM32H7xx_HAL_Driver/Src/stm32h7xx_hal_rcc.c ****       /* Otherwise, just the calibration is allowed */
 552:Drivers/STM32H7xx_HAL_Driver/Src/stm32h7xx_hal_rcc.c ****       else
 553:Drivers/STM32H7xx_HAL_Driver/Src/stm32h7xx_hal_rcc.c ****       {
 554:Drivers/STM32H7xx_HAL_Driver/Src/stm32h7xx_hal_rcc.c ****         /* Adjusts the Internal High Speed oscillator (CSI) calibration value.*/
 555:Drivers/STM32H7xx_HAL_Driver/Src/stm32h7xx_hal_rcc.c ****         __HAL_RCC_CSI_CALIBRATIONVALUE_ADJUST(RCC_OscInitStruct->CSICalibrationValue);
 556:Drivers/STM32H7xx_HAL_Driver/Src/stm32h7xx_hal_rcc.c ****       }
 557:Drivers/STM32H7xx_HAL_Driver/Src/stm32h7xx_hal_rcc.c ****     }
 558:Drivers/STM32H7xx_HAL_Driver/Src/stm32h7xx_hal_rcc.c ****     else
 559:Drivers/STM32H7xx_HAL_Driver/Src/stm32h7xx_hal_rcc.c ****     {
 560:Drivers/STM32H7xx_HAL_Driver/Src/stm32h7xx_hal_rcc.c ****       /* Check the CSI State */
 561:Drivers/STM32H7xx_HAL_Driver/Src/stm32h7xx_hal_rcc.c ****       if((RCC_OscInitStruct->CSIState)!= RCC_CSI_OFF)
 562:Drivers/STM32H7xx_HAL_Driver/Src/stm32h7xx_hal_rcc.c ****       {
 563:Drivers/STM32H7xx_HAL_Driver/Src/stm32h7xx_hal_rcc.c ****         /* Enable the Internal High Speed oscillator (CSI). */
 564:Drivers/STM32H7xx_HAL_Driver/Src/stm32h7xx_hal_rcc.c ****         __HAL_RCC_CSI_ENABLE();
 565:Drivers/STM32H7xx_HAL_Driver/Src/stm32h7xx_hal_rcc.c **** 
 566:Drivers/STM32H7xx_HAL_Driver/Src/stm32h7xx_hal_rcc.c ****         /* Get Start Tick*/
 567:Drivers/STM32H7xx_HAL_Driver/Src/stm32h7xx_hal_rcc.c ****         tickstart = HAL_GetTick();
 568:Drivers/STM32H7xx_HAL_Driver/Src/stm32h7xx_hal_rcc.c **** 
 569:Drivers/STM32H7xx_HAL_Driver/Src/stm32h7xx_hal_rcc.c ****         /* Wait till CSI is ready */
 570:Drivers/STM32H7xx_HAL_Driver/Src/stm32h7xx_hal_rcc.c ****         while(__HAL_RCC_GET_FLAG(RCC_FLAG_CSIRDY) == 0U)
 571:Drivers/STM32H7xx_HAL_Driver/Src/stm32h7xx_hal_rcc.c ****         {
 572:Drivers/STM32H7xx_HAL_Driver/Src/stm32h7xx_hal_rcc.c ****           if((HAL_GetTick() - tickstart ) > CSI_TIMEOUT_VALUE)
 573:Drivers/STM32H7xx_HAL_Driver/Src/stm32h7xx_hal_rcc.c ****           {
 574:Drivers/STM32H7xx_HAL_Driver/Src/stm32h7xx_hal_rcc.c ****             return HAL_TIMEOUT;
 575:Drivers/STM32H7xx_HAL_Driver/Src/stm32h7xx_hal_rcc.c ****           }
 576:Drivers/STM32H7xx_HAL_Driver/Src/stm32h7xx_hal_rcc.c ****         }
 577:Drivers/STM32H7xx_HAL_Driver/Src/stm32h7xx_hal_rcc.c **** 
 578:Drivers/STM32H7xx_HAL_Driver/Src/stm32h7xx_hal_rcc.c ****         /* Adjusts the Internal High Speed oscillator (CSI) calibration value.*/
 579:Drivers/STM32H7xx_HAL_Driver/Src/stm32h7xx_hal_rcc.c ****         __HAL_RCC_CSI_CALIBRATIONVALUE_ADJUST(RCC_OscInitStruct->CSICalibrationValue);
 580:Drivers/STM32H7xx_HAL_Driver/Src/stm32h7xx_hal_rcc.c ****       }
 581:Drivers/STM32H7xx_HAL_Driver/Src/stm32h7xx_hal_rcc.c ****       else
 582:Drivers/STM32H7xx_HAL_Driver/Src/stm32h7xx_hal_rcc.c ****       {
 583:Drivers/STM32H7xx_HAL_Driver/Src/stm32h7xx_hal_rcc.c ****         /* Disable the Internal High Speed oscillator (CSI). */
 584:Drivers/STM32H7xx_HAL_Driver/Src/stm32h7xx_hal_rcc.c ****         __HAL_RCC_CSI_DISABLE();
 585:Drivers/STM32H7xx_HAL_Driver/Src/stm32h7xx_hal_rcc.c **** 
 586:Drivers/STM32H7xx_HAL_Driver/Src/stm32h7xx_hal_rcc.c ****         /* Get Start Tick*/
 587:Drivers/STM32H7xx_HAL_Driver/Src/stm32h7xx_hal_rcc.c ****         tickstart = HAL_GetTick();
 588:Drivers/STM32H7xx_HAL_Driver/Src/stm32h7xx_hal_rcc.c **** 
 589:Drivers/STM32H7xx_HAL_Driver/Src/stm32h7xx_hal_rcc.c ****         /* Wait till CSI is disabled */
 590:Drivers/STM32H7xx_HAL_Driver/Src/stm32h7xx_hal_rcc.c ****         while(__HAL_RCC_GET_FLAG(RCC_FLAG_CSIRDY) != 0U)
 591:Drivers/STM32H7xx_HAL_Driver/Src/stm32h7xx_hal_rcc.c ****         {
 592:Drivers/STM32H7xx_HAL_Driver/Src/stm32h7xx_hal_rcc.c ****           if((HAL_GetTick() - tickstart ) > CSI_TIMEOUT_VALUE)
 593:Drivers/STM32H7xx_HAL_Driver/Src/stm32h7xx_hal_rcc.c ****           {
 594:Drivers/STM32H7xx_HAL_Driver/Src/stm32h7xx_hal_rcc.c ****             return HAL_TIMEOUT;
 595:Drivers/STM32H7xx_HAL_Driver/Src/stm32h7xx_hal_rcc.c ****           }
 596:Drivers/STM32H7xx_HAL_Driver/Src/stm32h7xx_hal_rcc.c ****         }
 597:Drivers/STM32H7xx_HAL_Driver/Src/stm32h7xx_hal_rcc.c ****       }
 598:Drivers/STM32H7xx_HAL_Driver/Src/stm32h7xx_hal_rcc.c ****     }
 599:Drivers/STM32H7xx_HAL_Driver/Src/stm32h7xx_hal_rcc.c ****   }
 600:Drivers/STM32H7xx_HAL_Driver/Src/stm32h7xx_hal_rcc.c ****   /*------------------------------ LSI Configuration -------------------------*/
 601:Drivers/STM32H7xx_HAL_Driver/Src/stm32h7xx_hal_rcc.c ****   if(((RCC_OscInitStruct->OscillatorType) & RCC_OSCILLATORTYPE_LSI) == RCC_OSCILLATORTYPE_LSI)
 626              		.loc 1 601 3 is_stmt 1 view .LVU232
 627              		.loc 1 601 5 is_stmt 0 view .LVU233
 628 00d8 1D07     		lsls	r5, r3, #28
 629 00da 17D5     		bpl	.L70
 602:Drivers/STM32H7xx_HAL_Driver/Src/stm32h7xx_hal_rcc.c ****   {
ARM GAS  /tmp/ccLdxC59.s 			page 25


 603:Drivers/STM32H7xx_HAL_Driver/Src/stm32h7xx_hal_rcc.c ****     /* Check the parameters */
 604:Drivers/STM32H7xx_HAL_Driver/Src/stm32h7xx_hal_rcc.c ****     assert_param(IS_RCC_LSI(RCC_OscInitStruct->LSIState));
 630              		.loc 1 604 5 is_stmt 1 view .LVU234
 605:Drivers/STM32H7xx_HAL_Driver/Src/stm32h7xx_hal_rcc.c **** 
 606:Drivers/STM32H7xx_HAL_Driver/Src/stm32h7xx_hal_rcc.c ****     /* Check the LSI State */
 607:Drivers/STM32H7xx_HAL_Driver/Src/stm32h7xx_hal_rcc.c ****     if((RCC_OscInitStruct->LSIState)!= RCC_LSI_OFF)
 631              		.loc 1 607 5 view .LVU235
 632              		.loc 1 607 7 is_stmt 0 view .LVU236
 633 00dc 6369     		ldr	r3, [r4, #20]
 634 00de 002B     		cmp	r3, #0
 635 00e0 00F09B80 		beq	.L71
 608:Drivers/STM32H7xx_HAL_Driver/Src/stm32h7xx_hal_rcc.c ****     {
 609:Drivers/STM32H7xx_HAL_Driver/Src/stm32h7xx_hal_rcc.c ****       /* Enable the Internal Low Speed oscillator (LSI). */
 610:Drivers/STM32H7xx_HAL_Driver/Src/stm32h7xx_hal_rcc.c ****       __HAL_RCC_LSI_ENABLE();
 636              		.loc 1 610 7 is_stmt 1 view .LVU237
 637 00e4 7A4B     		ldr	r3, .L169
 638 00e6 5A6F     		ldr	r2, [r3, #116]
 611:Drivers/STM32H7xx_HAL_Driver/Src/stm32h7xx_hal_rcc.c **** 
 612:Drivers/STM32H7xx_HAL_Driver/Src/stm32h7xx_hal_rcc.c ****       /* Get Start Tick*/
 613:Drivers/STM32H7xx_HAL_Driver/Src/stm32h7xx_hal_rcc.c ****       tickstart = HAL_GetTick();
 614:Drivers/STM32H7xx_HAL_Driver/Src/stm32h7xx_hal_rcc.c **** 
 615:Drivers/STM32H7xx_HAL_Driver/Src/stm32h7xx_hal_rcc.c ****       /* Wait till LSI is ready */
 616:Drivers/STM32H7xx_HAL_Driver/Src/stm32h7xx_hal_rcc.c ****       while(__HAL_RCC_GET_FLAG(RCC_FLAG_LSIRDY) == 0U)
 639              		.loc 1 616 13 is_stmt 0 view .LVU238
 640 00e8 1E46     		mov	r6, r3
 610:Drivers/STM32H7xx_HAL_Driver/Src/stm32h7xx_hal_rcc.c **** 
 641              		.loc 1 610 7 view .LVU239
 642 00ea 42F00102 		orr	r2, r2, #1
 643 00ee 5A67     		str	r2, [r3, #116]
 613:Drivers/STM32H7xx_HAL_Driver/Src/stm32h7xx_hal_rcc.c **** 
 644              		.loc 1 613 7 is_stmt 1 view .LVU240
 613:Drivers/STM32H7xx_HAL_Driver/Src/stm32h7xx_hal_rcc.c **** 
 645              		.loc 1 613 19 is_stmt 0 view .LVU241
 646 00f0 FFF7FEFF 		bl	HAL_GetTick
 647              	.LVL47:
 648 00f4 0546     		mov	r5, r0
 649              	.LVL48:
 650              		.loc 1 616 7 is_stmt 1 view .LVU242
 651              		.loc 1 616 12 is_stmt 0 view .LVU243
 652 00f6 05E0     		b	.L72
 653              	.LVL49:
 654              	.L73:
 617:Drivers/STM32H7xx_HAL_Driver/Src/stm32h7xx_hal_rcc.c ****       {
 618:Drivers/STM32H7xx_HAL_Driver/Src/stm32h7xx_hal_rcc.c ****         if((HAL_GetTick() - tickstart ) > LSI_TIMEOUT_VALUE)
 655              		.loc 1 618 13 view .LVU244
 656 00f8 FFF7FEFF 		bl	HAL_GetTick
 657              	.LVL50:
 658              		.loc 1 618 27 view .LVU245
 659 00fc 401B     		subs	r0, r0, r5
 660              		.loc 1 618 11 view .LVU246
 661 00fe 0228     		cmp	r0, #2
 662 0100 00F20981 		bhi	.L46
 663              	.L72:
 664              		.loc 1 618 9 is_stmt 1 view .LVU247
 616:Drivers/STM32H7xx_HAL_Driver/Src/stm32h7xx_hal_rcc.c ****       {
 665              		.loc 1 616 12 view .LVU248
 616:Drivers/STM32H7xx_HAL_Driver/Src/stm32h7xx_hal_rcc.c ****       {
ARM GAS  /tmp/ccLdxC59.s 			page 26


 666              		.loc 1 616 13 is_stmt 0 view .LVU249
 667 0104 736F     		ldr	r3, [r6, #116]
 616:Drivers/STM32H7xx_HAL_Driver/Src/stm32h7xx_hal_rcc.c ****       {
 668              		.loc 1 616 12 view .LVU250
 669 0106 9807     		lsls	r0, r3, #30
 670 0108 F6D5     		bpl	.L73
 671              	.L155:
 616:Drivers/STM32H7xx_HAL_Driver/Src/stm32h7xx_hal_rcc.c ****       {
 672              		.loc 1 616 12 view .LVU251
 673 010a 2368     		ldr	r3, [r4]
 674              	.LVL51:
 675              	.L70:
 619:Drivers/STM32H7xx_HAL_Driver/Src/stm32h7xx_hal_rcc.c ****         {
 620:Drivers/STM32H7xx_HAL_Driver/Src/stm32h7xx_hal_rcc.c ****           return HAL_TIMEOUT;
 621:Drivers/STM32H7xx_HAL_Driver/Src/stm32h7xx_hal_rcc.c ****         }
 622:Drivers/STM32H7xx_HAL_Driver/Src/stm32h7xx_hal_rcc.c ****       }
 623:Drivers/STM32H7xx_HAL_Driver/Src/stm32h7xx_hal_rcc.c ****     }
 624:Drivers/STM32H7xx_HAL_Driver/Src/stm32h7xx_hal_rcc.c ****     else
 625:Drivers/STM32H7xx_HAL_Driver/Src/stm32h7xx_hal_rcc.c ****     {
 626:Drivers/STM32H7xx_HAL_Driver/Src/stm32h7xx_hal_rcc.c ****       /* Disable the Internal Low Speed oscillator (LSI). */
 627:Drivers/STM32H7xx_HAL_Driver/Src/stm32h7xx_hal_rcc.c ****       __HAL_RCC_LSI_DISABLE();
 628:Drivers/STM32H7xx_HAL_Driver/Src/stm32h7xx_hal_rcc.c **** 
 629:Drivers/STM32H7xx_HAL_Driver/Src/stm32h7xx_hal_rcc.c ****       /* Get Start Tick*/
 630:Drivers/STM32H7xx_HAL_Driver/Src/stm32h7xx_hal_rcc.c ****       tickstart = HAL_GetTick();
 631:Drivers/STM32H7xx_HAL_Driver/Src/stm32h7xx_hal_rcc.c **** 
 632:Drivers/STM32H7xx_HAL_Driver/Src/stm32h7xx_hal_rcc.c ****       /* Wait till LSI is ready */
 633:Drivers/STM32H7xx_HAL_Driver/Src/stm32h7xx_hal_rcc.c ****       while(__HAL_RCC_GET_FLAG(RCC_FLAG_LSIRDY) != 0U)
 634:Drivers/STM32H7xx_HAL_Driver/Src/stm32h7xx_hal_rcc.c ****       {
 635:Drivers/STM32H7xx_HAL_Driver/Src/stm32h7xx_hal_rcc.c ****         if((HAL_GetTick() - tickstart ) > LSI_TIMEOUT_VALUE)
 636:Drivers/STM32H7xx_HAL_Driver/Src/stm32h7xx_hal_rcc.c ****         {
 637:Drivers/STM32H7xx_HAL_Driver/Src/stm32h7xx_hal_rcc.c ****           return HAL_TIMEOUT;
 638:Drivers/STM32H7xx_HAL_Driver/Src/stm32h7xx_hal_rcc.c ****         }
 639:Drivers/STM32H7xx_HAL_Driver/Src/stm32h7xx_hal_rcc.c ****       }
 640:Drivers/STM32H7xx_HAL_Driver/Src/stm32h7xx_hal_rcc.c ****     }
 641:Drivers/STM32H7xx_HAL_Driver/Src/stm32h7xx_hal_rcc.c ****   }
 642:Drivers/STM32H7xx_HAL_Driver/Src/stm32h7xx_hal_rcc.c **** 
 643:Drivers/STM32H7xx_HAL_Driver/Src/stm32h7xx_hal_rcc.c ****   /*------------------------------ HSI48 Configuration -------------------------*/
 644:Drivers/STM32H7xx_HAL_Driver/Src/stm32h7xx_hal_rcc.c ****   if(((RCC_OscInitStruct->OscillatorType) & RCC_OSCILLATORTYPE_HSI48) == RCC_OSCILLATORTYPE_HSI48)
 676              		.loc 1 644 3 is_stmt 1 view .LVU252
 677              		.loc 1 644 5 is_stmt 0 view .LVU253
 678 010c 9A06     		lsls	r2, r3, #26
 679 010e 17D5     		bpl	.L76
 645:Drivers/STM32H7xx_HAL_Driver/Src/stm32h7xx_hal_rcc.c ****   {
 646:Drivers/STM32H7xx_HAL_Driver/Src/stm32h7xx_hal_rcc.c ****     /* Check the parameters */
 647:Drivers/STM32H7xx_HAL_Driver/Src/stm32h7xx_hal_rcc.c ****     assert_param(IS_RCC_HSI48(RCC_OscInitStruct->HSI48State));
 680              		.loc 1 647 5 is_stmt 1 view .LVU254
 648:Drivers/STM32H7xx_HAL_Driver/Src/stm32h7xx_hal_rcc.c **** 
 649:Drivers/STM32H7xx_HAL_Driver/Src/stm32h7xx_hal_rcc.c ****     /* Check the HSI48 State */
 650:Drivers/STM32H7xx_HAL_Driver/Src/stm32h7xx_hal_rcc.c ****     if((RCC_OscInitStruct->HSI48State)!= RCC_HSI48_OFF)
 681              		.loc 1 650 5 view .LVU255
 682              		.loc 1 650 7 is_stmt 0 view .LVU256
 683 0110 A369     		ldr	r3, [r4, #24]
 684 0112 002B     		cmp	r3, #0
 685 0114 00F01881 		beq	.L77
 651:Drivers/STM32H7xx_HAL_Driver/Src/stm32h7xx_hal_rcc.c ****     {
 652:Drivers/STM32H7xx_HAL_Driver/Src/stm32h7xx_hal_rcc.c ****       /* Enable the Internal Low Speed oscillator (HSI48). */
 653:Drivers/STM32H7xx_HAL_Driver/Src/stm32h7xx_hal_rcc.c ****       __HAL_RCC_HSI48_ENABLE();
ARM GAS  /tmp/ccLdxC59.s 			page 27


 686              		.loc 1 653 7 is_stmt 1 view .LVU257
 687 0118 6D4B     		ldr	r3, .L169
 688 011a 1A68     		ldr	r2, [r3]
 654:Drivers/STM32H7xx_HAL_Driver/Src/stm32h7xx_hal_rcc.c **** 
 655:Drivers/STM32H7xx_HAL_Driver/Src/stm32h7xx_hal_rcc.c ****       /* Get time-out */
 656:Drivers/STM32H7xx_HAL_Driver/Src/stm32h7xx_hal_rcc.c ****       tickstart = HAL_GetTick();
 657:Drivers/STM32H7xx_HAL_Driver/Src/stm32h7xx_hal_rcc.c **** 
 658:Drivers/STM32H7xx_HAL_Driver/Src/stm32h7xx_hal_rcc.c ****       /* Wait till HSI48 is ready */
 659:Drivers/STM32H7xx_HAL_Driver/Src/stm32h7xx_hal_rcc.c ****       while(__HAL_RCC_GET_FLAG(RCC_FLAG_HSI48RDY) == 0U)
 689              		.loc 1 659 13 is_stmt 0 view .LVU258
 690 011c 1E46     		mov	r6, r3
 653:Drivers/STM32H7xx_HAL_Driver/Src/stm32h7xx_hal_rcc.c **** 
 691              		.loc 1 653 7 view .LVU259
 692 011e 42F48052 		orr	r2, r2, #4096
 693 0122 1A60     		str	r2, [r3]
 653:Drivers/STM32H7xx_HAL_Driver/Src/stm32h7xx_hal_rcc.c **** 
 694              		.loc 1 653 31 is_stmt 1 view .LVU260
 656:Drivers/STM32H7xx_HAL_Driver/Src/stm32h7xx_hal_rcc.c **** 
 695              		.loc 1 656 7 view .LVU261
 656:Drivers/STM32H7xx_HAL_Driver/Src/stm32h7xx_hal_rcc.c **** 
 696              		.loc 1 656 19 is_stmt 0 view .LVU262
 697 0124 FFF7FEFF 		bl	HAL_GetTick
 698              	.LVL52:
 699 0128 0546     		mov	r5, r0
 700              	.LVL53:
 701              		.loc 1 659 7 is_stmt 1 view .LVU263
 702              		.loc 1 659 12 is_stmt 0 view .LVU264
 703 012a 05E0     		b	.L78
 704              	.LVL54:
 705              	.L79:
 660:Drivers/STM32H7xx_HAL_Driver/Src/stm32h7xx_hal_rcc.c ****       {
 661:Drivers/STM32H7xx_HAL_Driver/Src/stm32h7xx_hal_rcc.c ****         if((HAL_GetTick() - tickstart ) > HSI48_TIMEOUT_VALUE)
 706              		.loc 1 661 13 view .LVU265
 707 012c FFF7FEFF 		bl	HAL_GetTick
 708              	.LVL55:
 709              		.loc 1 661 27 view .LVU266
 710 0130 401B     		subs	r0, r0, r5
 711              		.loc 1 661 11 view .LVU267
 712 0132 0228     		cmp	r0, #2
 713 0134 00F2EF80 		bhi	.L46
 714              	.L78:
 715              		.loc 1 661 9 is_stmt 1 view .LVU268
 659:Drivers/STM32H7xx_HAL_Driver/Src/stm32h7xx_hal_rcc.c ****       {
 716              		.loc 1 659 12 view .LVU269
 659:Drivers/STM32H7xx_HAL_Driver/Src/stm32h7xx_hal_rcc.c ****       {
 717              		.loc 1 659 13 is_stmt 0 view .LVU270
 718 0138 3368     		ldr	r3, [r6]
 659:Drivers/STM32H7xx_HAL_Driver/Src/stm32h7xx_hal_rcc.c ****       {
 719              		.loc 1 659 12 view .LVU271
 720 013a 9F04     		lsls	r7, r3, #18
 721 013c F6D5     		bpl	.L79
 722              	.L156:
 659:Drivers/STM32H7xx_HAL_Driver/Src/stm32h7xx_hal_rcc.c ****       {
 723              		.loc 1 659 12 view .LVU272
 724 013e 2368     		ldr	r3, [r4]
 725              	.LVL56:
 726              	.L76:
ARM GAS  /tmp/ccLdxC59.s 			page 28


 662:Drivers/STM32H7xx_HAL_Driver/Src/stm32h7xx_hal_rcc.c ****         {
 663:Drivers/STM32H7xx_HAL_Driver/Src/stm32h7xx_hal_rcc.c ****           return HAL_TIMEOUT;
 664:Drivers/STM32H7xx_HAL_Driver/Src/stm32h7xx_hal_rcc.c ****         }
 665:Drivers/STM32H7xx_HAL_Driver/Src/stm32h7xx_hal_rcc.c ****       }
 666:Drivers/STM32H7xx_HAL_Driver/Src/stm32h7xx_hal_rcc.c ****     }
 667:Drivers/STM32H7xx_HAL_Driver/Src/stm32h7xx_hal_rcc.c ****     else
 668:Drivers/STM32H7xx_HAL_Driver/Src/stm32h7xx_hal_rcc.c ****     {
 669:Drivers/STM32H7xx_HAL_Driver/Src/stm32h7xx_hal_rcc.c ****       /* Disable the Internal Low Speed oscillator (HSI48). */
 670:Drivers/STM32H7xx_HAL_Driver/Src/stm32h7xx_hal_rcc.c ****       __HAL_RCC_HSI48_DISABLE();
 671:Drivers/STM32H7xx_HAL_Driver/Src/stm32h7xx_hal_rcc.c **** 
 672:Drivers/STM32H7xx_HAL_Driver/Src/stm32h7xx_hal_rcc.c ****       /* Get time-out */
 673:Drivers/STM32H7xx_HAL_Driver/Src/stm32h7xx_hal_rcc.c ****       tickstart = HAL_GetTick();
 674:Drivers/STM32H7xx_HAL_Driver/Src/stm32h7xx_hal_rcc.c **** 
 675:Drivers/STM32H7xx_HAL_Driver/Src/stm32h7xx_hal_rcc.c ****       /* Wait till HSI48 is ready */
 676:Drivers/STM32H7xx_HAL_Driver/Src/stm32h7xx_hal_rcc.c ****       while(__HAL_RCC_GET_FLAG(RCC_FLAG_HSI48RDY) != 0U)
 677:Drivers/STM32H7xx_HAL_Driver/Src/stm32h7xx_hal_rcc.c ****       {
 678:Drivers/STM32H7xx_HAL_Driver/Src/stm32h7xx_hal_rcc.c ****         if((HAL_GetTick() - tickstart ) > HSI48_TIMEOUT_VALUE)
 679:Drivers/STM32H7xx_HAL_Driver/Src/stm32h7xx_hal_rcc.c ****         {
 680:Drivers/STM32H7xx_HAL_Driver/Src/stm32h7xx_hal_rcc.c ****           return HAL_TIMEOUT;
 681:Drivers/STM32H7xx_HAL_Driver/Src/stm32h7xx_hal_rcc.c ****         }
 682:Drivers/STM32H7xx_HAL_Driver/Src/stm32h7xx_hal_rcc.c ****       }
 683:Drivers/STM32H7xx_HAL_Driver/Src/stm32h7xx_hal_rcc.c ****     }
 684:Drivers/STM32H7xx_HAL_Driver/Src/stm32h7xx_hal_rcc.c ****   }
 685:Drivers/STM32H7xx_HAL_Driver/Src/stm32h7xx_hal_rcc.c ****   /*------------------------------ LSE Configuration -------------------------*/
 686:Drivers/STM32H7xx_HAL_Driver/Src/stm32h7xx_hal_rcc.c ****   if(((RCC_OscInitStruct->OscillatorType) & RCC_OSCILLATORTYPE_LSE) == RCC_OSCILLATORTYPE_LSE)
 727              		.loc 1 686 3 is_stmt 1 view .LVU273
 728              		.loc 1 686 5 is_stmt 0 view .LVU274
 729 0140 5907     		lsls	r1, r3, #29
 730 0142 00F19980 		bmi	.L82
 731              	.L95:
 687:Drivers/STM32H7xx_HAL_Driver/Src/stm32h7xx_hal_rcc.c ****   {
 688:Drivers/STM32H7xx_HAL_Driver/Src/stm32h7xx_hal_rcc.c ****     /* Check the parameters */
 689:Drivers/STM32H7xx_HAL_Driver/Src/stm32h7xx_hal_rcc.c ****     assert_param(IS_RCC_LSE(RCC_OscInitStruct->LSEState));
 690:Drivers/STM32H7xx_HAL_Driver/Src/stm32h7xx_hal_rcc.c **** 
 691:Drivers/STM32H7xx_HAL_Driver/Src/stm32h7xx_hal_rcc.c ****     /* Enable write access to Backup domain */
 692:Drivers/STM32H7xx_HAL_Driver/Src/stm32h7xx_hal_rcc.c ****     PWR->CR1 |= PWR_CR1_DBP;
 693:Drivers/STM32H7xx_HAL_Driver/Src/stm32h7xx_hal_rcc.c **** 
 694:Drivers/STM32H7xx_HAL_Driver/Src/stm32h7xx_hal_rcc.c ****     /* Wait for Backup domain Write protection disable */
 695:Drivers/STM32H7xx_HAL_Driver/Src/stm32h7xx_hal_rcc.c ****     tickstart = HAL_GetTick();
 696:Drivers/STM32H7xx_HAL_Driver/Src/stm32h7xx_hal_rcc.c **** 
 697:Drivers/STM32H7xx_HAL_Driver/Src/stm32h7xx_hal_rcc.c ****     while((PWR->CR1 & PWR_CR1_DBP) == 0U)
 698:Drivers/STM32H7xx_HAL_Driver/Src/stm32h7xx_hal_rcc.c ****     {
 699:Drivers/STM32H7xx_HAL_Driver/Src/stm32h7xx_hal_rcc.c ****       if((HAL_GetTick() - tickstart ) > RCC_DBP_TIMEOUT_VALUE)
 700:Drivers/STM32H7xx_HAL_Driver/Src/stm32h7xx_hal_rcc.c ****       {
 701:Drivers/STM32H7xx_HAL_Driver/Src/stm32h7xx_hal_rcc.c ****         return HAL_TIMEOUT;
 702:Drivers/STM32H7xx_HAL_Driver/Src/stm32h7xx_hal_rcc.c ****       }
 703:Drivers/STM32H7xx_HAL_Driver/Src/stm32h7xx_hal_rcc.c ****     }
 704:Drivers/STM32H7xx_HAL_Driver/Src/stm32h7xx_hal_rcc.c **** 
 705:Drivers/STM32H7xx_HAL_Driver/Src/stm32h7xx_hal_rcc.c ****     /* Set the new LSE configuration -----------------------------------------*/
 706:Drivers/STM32H7xx_HAL_Driver/Src/stm32h7xx_hal_rcc.c ****     __HAL_RCC_LSE_CONFIG(RCC_OscInitStruct->LSEState);
 707:Drivers/STM32H7xx_HAL_Driver/Src/stm32h7xx_hal_rcc.c ****     /* Check the LSE State */
 708:Drivers/STM32H7xx_HAL_Driver/Src/stm32h7xx_hal_rcc.c ****     if((RCC_OscInitStruct->LSEState) != RCC_LSE_OFF)
 709:Drivers/STM32H7xx_HAL_Driver/Src/stm32h7xx_hal_rcc.c ****     {
 710:Drivers/STM32H7xx_HAL_Driver/Src/stm32h7xx_hal_rcc.c ****       /* Get Start Tick*/
 711:Drivers/STM32H7xx_HAL_Driver/Src/stm32h7xx_hal_rcc.c ****       tickstart = HAL_GetTick();
 712:Drivers/STM32H7xx_HAL_Driver/Src/stm32h7xx_hal_rcc.c **** 
 713:Drivers/STM32H7xx_HAL_Driver/Src/stm32h7xx_hal_rcc.c ****       /* Wait till LSE is ready */
ARM GAS  /tmp/ccLdxC59.s 			page 29


 714:Drivers/STM32H7xx_HAL_Driver/Src/stm32h7xx_hal_rcc.c ****       while(__HAL_RCC_GET_FLAG(RCC_FLAG_LSERDY) == 0U)
 715:Drivers/STM32H7xx_HAL_Driver/Src/stm32h7xx_hal_rcc.c ****       {
 716:Drivers/STM32H7xx_HAL_Driver/Src/stm32h7xx_hal_rcc.c ****         if((HAL_GetTick() - tickstart ) > RCC_LSE_TIMEOUT_VALUE)
 717:Drivers/STM32H7xx_HAL_Driver/Src/stm32h7xx_hal_rcc.c ****         {
 718:Drivers/STM32H7xx_HAL_Driver/Src/stm32h7xx_hal_rcc.c ****           return HAL_TIMEOUT;
 719:Drivers/STM32H7xx_HAL_Driver/Src/stm32h7xx_hal_rcc.c ****         }
 720:Drivers/STM32H7xx_HAL_Driver/Src/stm32h7xx_hal_rcc.c ****       }
 721:Drivers/STM32H7xx_HAL_Driver/Src/stm32h7xx_hal_rcc.c ****     }
 722:Drivers/STM32H7xx_HAL_Driver/Src/stm32h7xx_hal_rcc.c ****     else
 723:Drivers/STM32H7xx_HAL_Driver/Src/stm32h7xx_hal_rcc.c ****     {
 724:Drivers/STM32H7xx_HAL_Driver/Src/stm32h7xx_hal_rcc.c ****       /* Get Start Tick*/
 725:Drivers/STM32H7xx_HAL_Driver/Src/stm32h7xx_hal_rcc.c ****       tickstart = HAL_GetTick();
 726:Drivers/STM32H7xx_HAL_Driver/Src/stm32h7xx_hal_rcc.c **** 
 727:Drivers/STM32H7xx_HAL_Driver/Src/stm32h7xx_hal_rcc.c ****       /* Wait till LSE is disabled */
 728:Drivers/STM32H7xx_HAL_Driver/Src/stm32h7xx_hal_rcc.c ****       while(__HAL_RCC_GET_FLAG(RCC_FLAG_LSERDY) != 0U)
 729:Drivers/STM32H7xx_HAL_Driver/Src/stm32h7xx_hal_rcc.c ****       {
 730:Drivers/STM32H7xx_HAL_Driver/Src/stm32h7xx_hal_rcc.c ****         if((HAL_GetTick() - tickstart ) > RCC_LSE_TIMEOUT_VALUE)
 731:Drivers/STM32H7xx_HAL_Driver/Src/stm32h7xx_hal_rcc.c ****         {
 732:Drivers/STM32H7xx_HAL_Driver/Src/stm32h7xx_hal_rcc.c ****           return HAL_TIMEOUT;
 733:Drivers/STM32H7xx_HAL_Driver/Src/stm32h7xx_hal_rcc.c ****         }
 734:Drivers/STM32H7xx_HAL_Driver/Src/stm32h7xx_hal_rcc.c ****       }
 735:Drivers/STM32H7xx_HAL_Driver/Src/stm32h7xx_hal_rcc.c ****     }
 736:Drivers/STM32H7xx_HAL_Driver/Src/stm32h7xx_hal_rcc.c ****   }
 737:Drivers/STM32H7xx_HAL_Driver/Src/stm32h7xx_hal_rcc.c ****   /*-------------------------------- PLL Configuration -----------------------*/
 738:Drivers/STM32H7xx_HAL_Driver/Src/stm32h7xx_hal_rcc.c ****   /* Check the parameters */
 739:Drivers/STM32H7xx_HAL_Driver/Src/stm32h7xx_hal_rcc.c ****   assert_param(IS_RCC_PLL(RCC_OscInitStruct->PLL.PLLState));
 732              		.loc 1 739 3 is_stmt 1 view .LVU275
 740:Drivers/STM32H7xx_HAL_Driver/Src/stm32h7xx_hal_rcc.c ****   if ((RCC_OscInitStruct->PLL.PLLState) != RCC_PLL_NONE)
 733              		.loc 1 740 3 view .LVU276
 734              		.loc 1 740 30 is_stmt 0 view .LVU277
 735 0146 606A     		ldr	r0, [r4, #36]
 736              		.loc 1 740 6 view .LVU278
 737 0148 D8B1     		cbz	r0, .L84
 741:Drivers/STM32H7xx_HAL_Driver/Src/stm32h7xx_hal_rcc.c ****   {
 742:Drivers/STM32H7xx_HAL_Driver/Src/stm32h7xx_hal_rcc.c ****     /* Check if the PLL is used as system clock or not */
 743:Drivers/STM32H7xx_HAL_Driver/Src/stm32h7xx_hal_rcc.c ****     if(__HAL_RCC_GET_SYSCLK_SOURCE() != RCC_CFGR_SWS_PLL1)
 738              		.loc 1 743 5 is_stmt 1 view .LVU279
 739              		.loc 1 743 8 is_stmt 0 view .LVU280
 740 014a 614B     		ldr	r3, .L169
 741 014c 1A69     		ldr	r2, [r3, #16]
 742 014e 02F03802 		and	r2, r2, #56
 743              		.loc 1 743 7 view .LVU281
 744 0152 182A     		cmp	r2, #24
 745 0154 00F0A981 		beq	.L97
 744:Drivers/STM32H7xx_HAL_Driver/Src/stm32h7xx_hal_rcc.c ****     {
 745:Drivers/STM32H7xx_HAL_Driver/Src/stm32h7xx_hal_rcc.c ****       if((RCC_OscInitStruct->PLL.PLLState) == RCC_PLL_ON)
 746              		.loc 1 745 7 is_stmt 1 view .LVU282
 746:Drivers/STM32H7xx_HAL_Driver/Src/stm32h7xx_hal_rcc.c ****       {
 747:Drivers/STM32H7xx_HAL_Driver/Src/stm32h7xx_hal_rcc.c ****         /* Check the parameters */
 748:Drivers/STM32H7xx_HAL_Driver/Src/stm32h7xx_hal_rcc.c ****         assert_param(IS_RCC_PLLSOURCE(RCC_OscInitStruct->PLL.PLLSource));
 749:Drivers/STM32H7xx_HAL_Driver/Src/stm32h7xx_hal_rcc.c ****         assert_param(IS_RCC_PLLM_VALUE(RCC_OscInitStruct->PLL.PLLM));
 750:Drivers/STM32H7xx_HAL_Driver/Src/stm32h7xx_hal_rcc.c ****         assert_param(IS_RCC_PLLN_VALUE(RCC_OscInitStruct->PLL.PLLN));
 751:Drivers/STM32H7xx_HAL_Driver/Src/stm32h7xx_hal_rcc.c ****         assert_param(IS_RCC_PLLP_VALUE(RCC_OscInitStruct->PLL.PLLP));
 752:Drivers/STM32H7xx_HAL_Driver/Src/stm32h7xx_hal_rcc.c ****         assert_param(IS_RCC_PLLQ_VALUE(RCC_OscInitStruct->PLL.PLLQ));
 753:Drivers/STM32H7xx_HAL_Driver/Src/stm32h7xx_hal_rcc.c ****         assert_param(IS_RCC_PLLR_VALUE(RCC_OscInitStruct->PLL.PLLR));
 754:Drivers/STM32H7xx_HAL_Driver/Src/stm32h7xx_hal_rcc.c ****         assert_param(IS_RCC_PLLFRACN_VALUE(RCC_OscInitStruct->PLL.PLLFRACN));
 755:Drivers/STM32H7xx_HAL_Driver/Src/stm32h7xx_hal_rcc.c **** 
ARM GAS  /tmp/ccLdxC59.s 			page 30


 756:Drivers/STM32H7xx_HAL_Driver/Src/stm32h7xx_hal_rcc.c ****         /* Disable the main PLL. */
 757:Drivers/STM32H7xx_HAL_Driver/Src/stm32h7xx_hal_rcc.c ****         __HAL_RCC_PLL_DISABLE();
 747              		.loc 1 757 9 is_stmt 0 view .LVU283
 748 0158 1A68     		ldr	r2, [r3]
 745:Drivers/STM32H7xx_HAL_Driver/Src/stm32h7xx_hal_rcc.c ****       {
 749              		.loc 1 745 9 view .LVU284
 750 015a 0228     		cmp	r0, #2
 758:Drivers/STM32H7xx_HAL_Driver/Src/stm32h7xx_hal_rcc.c **** 
 759:Drivers/STM32H7xx_HAL_Driver/Src/stm32h7xx_hal_rcc.c ****         /* Get Start Tick*/
 760:Drivers/STM32H7xx_HAL_Driver/Src/stm32h7xx_hal_rcc.c ****         tickstart = HAL_GetTick();
 761:Drivers/STM32H7xx_HAL_Driver/Src/stm32h7xx_hal_rcc.c **** 
 762:Drivers/STM32H7xx_HAL_Driver/Src/stm32h7xx_hal_rcc.c ****         /* Wait till PLL is disabled */
 763:Drivers/STM32H7xx_HAL_Driver/Src/stm32h7xx_hal_rcc.c ****         while(__HAL_RCC_GET_FLAG(RCC_FLAG_PLLRDY) != 0U)
 751              		.loc 1 763 15 view .LVU285
 752 015c 1D46     		mov	r5, r3
 757:Drivers/STM32H7xx_HAL_Driver/Src/stm32h7xx_hal_rcc.c **** 
 753              		.loc 1 757 9 view .LVU286
 754 015e 22F08072 		bic	r2, r2, #16777216
 755 0162 1A60     		str	r2, [r3]
 745:Drivers/STM32H7xx_HAL_Driver/Src/stm32h7xx_hal_rcc.c ****       {
 756              		.loc 1 745 9 view .LVU287
 757 0164 00F03C81 		beq	.L164
 764:Drivers/STM32H7xx_HAL_Driver/Src/stm32h7xx_hal_rcc.c ****         {
 765:Drivers/STM32H7xx_HAL_Driver/Src/stm32h7xx_hal_rcc.c ****           if((HAL_GetTick() - tickstart ) > PLL_TIMEOUT_VALUE)
 766:Drivers/STM32H7xx_HAL_Driver/Src/stm32h7xx_hal_rcc.c ****           {
 767:Drivers/STM32H7xx_HAL_Driver/Src/stm32h7xx_hal_rcc.c ****             return HAL_TIMEOUT;
 768:Drivers/STM32H7xx_HAL_Driver/Src/stm32h7xx_hal_rcc.c ****           }
 769:Drivers/STM32H7xx_HAL_Driver/Src/stm32h7xx_hal_rcc.c ****         }
 770:Drivers/STM32H7xx_HAL_Driver/Src/stm32h7xx_hal_rcc.c **** 
 771:Drivers/STM32H7xx_HAL_Driver/Src/stm32h7xx_hal_rcc.c ****         /* Configure the main PLL clock source, multiplication and division factors. */
 772:Drivers/STM32H7xx_HAL_Driver/Src/stm32h7xx_hal_rcc.c ****         __HAL_RCC_PLL_CONFIG(RCC_OscInitStruct->PLL.PLLSource,
 773:Drivers/STM32H7xx_HAL_Driver/Src/stm32h7xx_hal_rcc.c ****                              RCC_OscInitStruct->PLL.PLLM,
 774:Drivers/STM32H7xx_HAL_Driver/Src/stm32h7xx_hal_rcc.c ****                              RCC_OscInitStruct->PLL.PLLN,
 775:Drivers/STM32H7xx_HAL_Driver/Src/stm32h7xx_hal_rcc.c ****                              RCC_OscInitStruct->PLL.PLLP,
 776:Drivers/STM32H7xx_HAL_Driver/Src/stm32h7xx_hal_rcc.c ****                              RCC_OscInitStruct->PLL.PLLQ,
 777:Drivers/STM32H7xx_HAL_Driver/Src/stm32h7xx_hal_rcc.c ****                              RCC_OscInitStruct->PLL.PLLR);
 778:Drivers/STM32H7xx_HAL_Driver/Src/stm32h7xx_hal_rcc.c **** 
 779:Drivers/STM32H7xx_HAL_Driver/Src/stm32h7xx_hal_rcc.c ****          /* Disable PLLFRACN . */
 780:Drivers/STM32H7xx_HAL_Driver/Src/stm32h7xx_hal_rcc.c ****          __HAL_RCC_PLLFRACN_DISABLE();
 781:Drivers/STM32H7xx_HAL_Driver/Src/stm32h7xx_hal_rcc.c **** 
 782:Drivers/STM32H7xx_HAL_Driver/Src/stm32h7xx_hal_rcc.c ****          /* Configure PLL PLL1FRACN */
 783:Drivers/STM32H7xx_HAL_Driver/Src/stm32h7xx_hal_rcc.c ****          __HAL_RCC_PLLFRACN_CONFIG(RCC_OscInitStruct->PLL.PLLFRACN);
 784:Drivers/STM32H7xx_HAL_Driver/Src/stm32h7xx_hal_rcc.c **** 
 785:Drivers/STM32H7xx_HAL_Driver/Src/stm32h7xx_hal_rcc.c ****         /* Select PLL1 input reference frequency range: VCI */
 786:Drivers/STM32H7xx_HAL_Driver/Src/stm32h7xx_hal_rcc.c ****         __HAL_RCC_PLL_VCIRANGE(RCC_OscInitStruct->PLL.PLLRGE) ;
 787:Drivers/STM32H7xx_HAL_Driver/Src/stm32h7xx_hal_rcc.c **** 
 788:Drivers/STM32H7xx_HAL_Driver/Src/stm32h7xx_hal_rcc.c ****         /* Select PLL1 output frequency range : VCO */
 789:Drivers/STM32H7xx_HAL_Driver/Src/stm32h7xx_hal_rcc.c ****         __HAL_RCC_PLL_VCORANGE(RCC_OscInitStruct->PLL.PLLVCOSEL) ;
 790:Drivers/STM32H7xx_HAL_Driver/Src/stm32h7xx_hal_rcc.c **** 
 791:Drivers/STM32H7xx_HAL_Driver/Src/stm32h7xx_hal_rcc.c ****         /* Enable PLL System Clock output. */
 792:Drivers/STM32H7xx_HAL_Driver/Src/stm32h7xx_hal_rcc.c ****          __HAL_RCC_PLLCLKOUT_ENABLE(RCC_PLL1_DIVP);
 793:Drivers/STM32H7xx_HAL_Driver/Src/stm32h7xx_hal_rcc.c **** 
 794:Drivers/STM32H7xx_HAL_Driver/Src/stm32h7xx_hal_rcc.c ****         /* Enable PLL1Q Clock output. */
 795:Drivers/STM32H7xx_HAL_Driver/Src/stm32h7xx_hal_rcc.c ****          __HAL_RCC_PLLCLKOUT_ENABLE(RCC_PLL1_DIVQ);
 796:Drivers/STM32H7xx_HAL_Driver/Src/stm32h7xx_hal_rcc.c **** 
 797:Drivers/STM32H7xx_HAL_Driver/Src/stm32h7xx_hal_rcc.c ****         /* Enable PLL1R  Clock output. */
 798:Drivers/STM32H7xx_HAL_Driver/Src/stm32h7xx_hal_rcc.c ****          __HAL_RCC_PLLCLKOUT_ENABLE(RCC_PLL1_DIVR);
ARM GAS  /tmp/ccLdxC59.s 			page 31


 799:Drivers/STM32H7xx_HAL_Driver/Src/stm32h7xx_hal_rcc.c **** 
 800:Drivers/STM32H7xx_HAL_Driver/Src/stm32h7xx_hal_rcc.c ****         /* Enable PLL1FRACN . */
 801:Drivers/STM32H7xx_HAL_Driver/Src/stm32h7xx_hal_rcc.c ****          __HAL_RCC_PLLFRACN_ENABLE();
 802:Drivers/STM32H7xx_HAL_Driver/Src/stm32h7xx_hal_rcc.c **** 
 803:Drivers/STM32H7xx_HAL_Driver/Src/stm32h7xx_hal_rcc.c ****         /* Enable the main PLL. */
 804:Drivers/STM32H7xx_HAL_Driver/Src/stm32h7xx_hal_rcc.c ****         __HAL_RCC_PLL_ENABLE();
 805:Drivers/STM32H7xx_HAL_Driver/Src/stm32h7xx_hal_rcc.c **** 
 806:Drivers/STM32H7xx_HAL_Driver/Src/stm32h7xx_hal_rcc.c ****         /* Get Start Tick*/
 807:Drivers/STM32H7xx_HAL_Driver/Src/stm32h7xx_hal_rcc.c ****         tickstart = HAL_GetTick();
 808:Drivers/STM32H7xx_HAL_Driver/Src/stm32h7xx_hal_rcc.c **** 
 809:Drivers/STM32H7xx_HAL_Driver/Src/stm32h7xx_hal_rcc.c ****         /* Wait till PLL is ready */
 810:Drivers/STM32H7xx_HAL_Driver/Src/stm32h7xx_hal_rcc.c ****         while(__HAL_RCC_GET_FLAG(RCC_FLAG_PLLRDY) == 0U)
 811:Drivers/STM32H7xx_HAL_Driver/Src/stm32h7xx_hal_rcc.c ****         {
 812:Drivers/STM32H7xx_HAL_Driver/Src/stm32h7xx_hal_rcc.c ****           if((HAL_GetTick() - tickstart ) > PLL_TIMEOUT_VALUE)
 813:Drivers/STM32H7xx_HAL_Driver/Src/stm32h7xx_hal_rcc.c ****           {
 814:Drivers/STM32H7xx_HAL_Driver/Src/stm32h7xx_hal_rcc.c ****             return HAL_TIMEOUT;
 815:Drivers/STM32H7xx_HAL_Driver/Src/stm32h7xx_hal_rcc.c ****           }
 816:Drivers/STM32H7xx_HAL_Driver/Src/stm32h7xx_hal_rcc.c ****         }
 817:Drivers/STM32H7xx_HAL_Driver/Src/stm32h7xx_hal_rcc.c ****       }
 818:Drivers/STM32H7xx_HAL_Driver/Src/stm32h7xx_hal_rcc.c ****       else
 819:Drivers/STM32H7xx_HAL_Driver/Src/stm32h7xx_hal_rcc.c ****       {
 820:Drivers/STM32H7xx_HAL_Driver/Src/stm32h7xx_hal_rcc.c ****         /* Disable the main PLL. */
 821:Drivers/STM32H7xx_HAL_Driver/Src/stm32h7xx_hal_rcc.c ****         __HAL_RCC_PLL_DISABLE();
 758              		.loc 1 821 9 is_stmt 1 view .LVU288
 822:Drivers/STM32H7xx_HAL_Driver/Src/stm32h7xx_hal_rcc.c **** 
 823:Drivers/STM32H7xx_HAL_Driver/Src/stm32h7xx_hal_rcc.c ****         /* Get Start Tick*/
 824:Drivers/STM32H7xx_HAL_Driver/Src/stm32h7xx_hal_rcc.c ****         tickstart = HAL_GetTick();
 759              		.loc 1 824 9 view .LVU289
 760              		.loc 1 824 21 is_stmt 0 view .LVU290
 761 0168 FFF7FEFF 		bl	HAL_GetTick
 762              	.LVL57:
 763 016c 0446     		mov	r4, r0
 764              	.LVL58:
 825:Drivers/STM32H7xx_HAL_Driver/Src/stm32h7xx_hal_rcc.c **** 
 826:Drivers/STM32H7xx_HAL_Driver/Src/stm32h7xx_hal_rcc.c ****         /* Wait till PLL is disabled */
 827:Drivers/STM32H7xx_HAL_Driver/Src/stm32h7xx_hal_rcc.c ****         while(__HAL_RCC_GET_FLAG(RCC_FLAG_PLLRDY) != 0U)
 765              		.loc 1 827 9 is_stmt 1 view .LVU291
 766              		.loc 1 827 14 is_stmt 0 view .LVU292
 767 016e 05E0     		b	.L103
 768              	.LVL59:
 769              	.L104:
 828:Drivers/STM32H7xx_HAL_Driver/Src/stm32h7xx_hal_rcc.c ****         {
 829:Drivers/STM32H7xx_HAL_Driver/Src/stm32h7xx_hal_rcc.c ****           if((HAL_GetTick() - tickstart ) > PLL_TIMEOUT_VALUE)
 770              		.loc 1 829 15 view .LVU293
 771 0170 FFF7FEFF 		bl	HAL_GetTick
 772              	.LVL60:
 773              		.loc 1 829 29 view .LVU294
 774 0174 001B     		subs	r0, r0, r4
 775              		.loc 1 829 13 view .LVU295
 776 0176 0228     		cmp	r0, #2
 777 0178 00F2CD80 		bhi	.L46
 778              	.L103:
 779              		.loc 1 829 11 is_stmt 1 view .LVU296
 827:Drivers/STM32H7xx_HAL_Driver/Src/stm32h7xx_hal_rcc.c ****         {
 780              		.loc 1 827 14 view .LVU297
 827:Drivers/STM32H7xx_HAL_Driver/Src/stm32h7xx_hal_rcc.c ****         {
 781              		.loc 1 827 15 is_stmt 0 view .LVU298
ARM GAS  /tmp/ccLdxC59.s 			page 32


 782 017c 2B68     		ldr	r3, [r5]
 827:Drivers/STM32H7xx_HAL_Driver/Src/stm32h7xx_hal_rcc.c ****         {
 783              		.loc 1 827 14 view .LVU299
 784 017e 9B01     		lsls	r3, r3, #6
 785 0180 F6D4     		bmi	.L104
 786              	.LVL61:
 787              	.L84:
 830:Drivers/STM32H7xx_HAL_Driver/Src/stm32h7xx_hal_rcc.c ****           {
 831:Drivers/STM32H7xx_HAL_Driver/Src/stm32h7xx_hal_rcc.c ****             return HAL_TIMEOUT;
 832:Drivers/STM32H7xx_HAL_Driver/Src/stm32h7xx_hal_rcc.c ****           }
 833:Drivers/STM32H7xx_HAL_Driver/Src/stm32h7xx_hal_rcc.c ****         }
 834:Drivers/STM32H7xx_HAL_Driver/Src/stm32h7xx_hal_rcc.c ****       }
 835:Drivers/STM32H7xx_HAL_Driver/Src/stm32h7xx_hal_rcc.c ****     }
 836:Drivers/STM32H7xx_HAL_Driver/Src/stm32h7xx_hal_rcc.c ****     else
 837:Drivers/STM32H7xx_HAL_Driver/Src/stm32h7xx_hal_rcc.c ****     {
 838:Drivers/STM32H7xx_HAL_Driver/Src/stm32h7xx_hal_rcc.c ****       /* Do not return HAL_ERROR if request repeats the current configuration */
 839:Drivers/STM32H7xx_HAL_Driver/Src/stm32h7xx_hal_rcc.c ****       temp1_pllckcfg = RCC->PLLCKSELR;
 840:Drivers/STM32H7xx_HAL_Driver/Src/stm32h7xx_hal_rcc.c ****       temp2_pllckcfg = RCC->PLL1DIVR;
 841:Drivers/STM32H7xx_HAL_Driver/Src/stm32h7xx_hal_rcc.c ****       if(((RCC_OscInitStruct->PLL.PLLState) == RCC_PLL_OFF) ||
 842:Drivers/STM32H7xx_HAL_Driver/Src/stm32h7xx_hal_rcc.c **** 	 (READ_BIT(temp1_pllckcfg, RCC_PLLCKSELR_PLLSRC) != RCC_OscInitStruct->PLL.PLLSource) ||
 843:Drivers/STM32H7xx_HAL_Driver/Src/stm32h7xx_hal_rcc.c ****          ((READ_BIT(temp1_pllckcfg, RCC_PLLCKSELR_DIVM1) >> RCC_PLLCKSELR_DIVM1_Pos) != RCC_OscInit
 844:Drivers/STM32H7xx_HAL_Driver/Src/stm32h7xx_hal_rcc.c ****          (READ_BIT(temp2_pllckcfg, RCC_PLL1DIVR_N1) != (RCC_OscInitStruct->PLL.PLLN - 1U)) ||
 845:Drivers/STM32H7xx_HAL_Driver/Src/stm32h7xx_hal_rcc.c ****          ((READ_BIT(temp2_pllckcfg, RCC_PLL1DIVR_P1) >> RCC_PLL1DIVR_P1_Pos) != (RCC_OscInitStruct-
 846:Drivers/STM32H7xx_HAL_Driver/Src/stm32h7xx_hal_rcc.c ****          ((READ_BIT(temp2_pllckcfg, RCC_PLL1DIVR_Q1) >> RCC_PLL1DIVR_Q1_Pos) != (RCC_OscInitStruct-
 847:Drivers/STM32H7xx_HAL_Driver/Src/stm32h7xx_hal_rcc.c ****          ((READ_BIT(temp2_pllckcfg, RCC_PLL1DIVR_R1) >> RCC_PLL1DIVR_R1_Pos) != (RCC_OscInitStruct-
 848:Drivers/STM32H7xx_HAL_Driver/Src/stm32h7xx_hal_rcc.c ****       {
 849:Drivers/STM32H7xx_HAL_Driver/Src/stm32h7xx_hal_rcc.c ****         return HAL_ERROR;
 850:Drivers/STM32H7xx_HAL_Driver/Src/stm32h7xx_hal_rcc.c ****       }
 851:Drivers/STM32H7xx_HAL_Driver/Src/stm32h7xx_hal_rcc.c ****     }
 852:Drivers/STM32H7xx_HAL_Driver/Src/stm32h7xx_hal_rcc.c ****   }
 853:Drivers/STM32H7xx_HAL_Driver/Src/stm32h7xx_hal_rcc.c ****   return HAL_OK;
 788              		.loc 1 853 10 view .LVU300
 789 0182 0020     		movs	r0, #0
 790              	.L33:
 854:Drivers/STM32H7xx_HAL_Driver/Src/stm32h7xx_hal_rcc.c **** }
 791              		.loc 1 854 1 view .LVU301
 792 0184 F8BD     		pop	{r3, r4, r5, r6, r7, pc}
 793              	.LVL62:
 794              	.L163:
 795              	.LBB4:
 538:Drivers/STM32H7xx_HAL_Driver/Src/stm32h7xx_hal_rcc.c ****     assert_param(IS_RCC_CSICALIBRATION_VALUE(RCC_OscInitStruct->CSICalibrationValue));
 796              		.loc 1 538 5 is_stmt 1 view .LVU302
 539:Drivers/STM32H7xx_HAL_Driver/Src/stm32h7xx_hal_rcc.c **** 
 797              		.loc 1 539 5 view .LVU303
 542:Drivers/STM32H7xx_HAL_Driver/Src/stm32h7xx_hal_rcc.c ****     const uint32_t temp_pllckselr = RCC->PLLCKSELR;
 798              		.loc 1 542 5 view .LVU304
 542:Drivers/STM32H7xx_HAL_Driver/Src/stm32h7xx_hal_rcc.c ****     const uint32_t temp_pllckselr = RCC->PLLCKSELR;
 799              		.loc 1 542 37 is_stmt 0 view .LVU305
 800 0186 524A     		ldr	r2, .L169
 801 0188 1369     		ldr	r3, [r2, #16]
 543:Drivers/STM32H7xx_HAL_Driver/Src/stm32h7xx_hal_rcc.c ****     if((temp_sysclksrc == RCC_CFGR_SWS_CSI) || ((temp_sysclksrc == RCC_CFGR_SWS_PLL1) && ((temp_pll
 802              		.loc 1 543 20 view .LVU306
 803 018a 926A     		ldr	r2, [r2, #40]
 542:Drivers/STM32H7xx_HAL_Driver/Src/stm32h7xx_hal_rcc.c ****     const uint32_t temp_pllckselr = RCC->PLLCKSELR;
 804              		.loc 1 542 20 view .LVU307
 805 018c 03F03803 		and	r3, r3, #56
 806              	.LVL63:
ARM GAS  /tmp/ccLdxC59.s 			page 33


 543:Drivers/STM32H7xx_HAL_Driver/Src/stm32h7xx_hal_rcc.c ****     if((temp_sysclksrc == RCC_CFGR_SWS_CSI) || ((temp_sysclksrc == RCC_CFGR_SWS_PLL1) && ((temp_pll
 807              		.loc 1 543 5 is_stmt 1 view .LVU308
 544:Drivers/STM32H7xx_HAL_Driver/Src/stm32h7xx_hal_rcc.c ****     {
 808              		.loc 1 544 5 view .LVU309
 544:Drivers/STM32H7xx_HAL_Driver/Src/stm32h7xx_hal_rcc.c ****     {
 809              		.loc 1 544 7 is_stmt 0 view .LVU310
 810 0190 082B     		cmp	r3, #8
 811 0192 59D0     		beq	.L60
 544:Drivers/STM32H7xx_HAL_Driver/Src/stm32h7xx_hal_rcc.c ****     {
 812              		.loc 1 544 45 discriminator 1 view .LVU311
 813 0194 182B     		cmp	r3, #24
 814 0196 53D0     		beq	.L165
 815              	.LVL64:
 816              	.L61:
 561:Drivers/STM32H7xx_HAL_Driver/Src/stm32h7xx_hal_rcc.c ****       {
 817              		.loc 1 561 7 is_stmt 1 view .LVU312
 561:Drivers/STM32H7xx_HAL_Driver/Src/stm32h7xx_hal_rcc.c ****       {
 818              		.loc 1 561 9 is_stmt 0 view .LVU313
 819 0198 E369     		ldr	r3, [r4, #28]
 820              	.LVL65:
 561:Drivers/STM32H7xx_HAL_Driver/Src/stm32h7xx_hal_rcc.c ****       {
 821              		.loc 1 561 9 view .LVU314
 822 019a 002B     		cmp	r3, #0
 823 019c 00F0E780 		beq	.L64
 564:Drivers/STM32H7xx_HAL_Driver/Src/stm32h7xx_hal_rcc.c **** 
 824              		.loc 1 564 9 is_stmt 1 view .LVU315
 825 01a0 4B4B     		ldr	r3, .L169
 826 01a2 1A68     		ldr	r2, [r3]
 570:Drivers/STM32H7xx_HAL_Driver/Src/stm32h7xx_hal_rcc.c ****         {
 827              		.loc 1 570 15 is_stmt 0 view .LVU316
 828 01a4 1E46     		mov	r6, r3
 564:Drivers/STM32H7xx_HAL_Driver/Src/stm32h7xx_hal_rcc.c **** 
 829              		.loc 1 564 9 view .LVU317
 830 01a6 42F08002 		orr	r2, r2, #128
 831 01aa 1A60     		str	r2, [r3]
 567:Drivers/STM32H7xx_HAL_Driver/Src/stm32h7xx_hal_rcc.c **** 
 832              		.loc 1 567 9 is_stmt 1 view .LVU318
 567:Drivers/STM32H7xx_HAL_Driver/Src/stm32h7xx_hal_rcc.c **** 
 833              		.loc 1 567 21 is_stmt 0 view .LVU319
 834 01ac FFF7FEFF 		bl	HAL_GetTick
 835              	.LVL66:
 836 01b0 0546     		mov	r5, r0
 837              	.LVL67:
 570:Drivers/STM32H7xx_HAL_Driver/Src/stm32h7xx_hal_rcc.c ****         {
 838              		.loc 1 570 9 is_stmt 1 view .LVU320
 570:Drivers/STM32H7xx_HAL_Driver/Src/stm32h7xx_hal_rcc.c ****         {
 839              		.loc 1 570 14 is_stmt 0 view .LVU321
 840 01b2 05E0     		b	.L65
 841              	.LVL68:
 842              	.L66:
 572:Drivers/STM32H7xx_HAL_Driver/Src/stm32h7xx_hal_rcc.c ****           {
 843              		.loc 1 572 15 view .LVU322
 844 01b4 FFF7FEFF 		bl	HAL_GetTick
 845              	.LVL69:
 572:Drivers/STM32H7xx_HAL_Driver/Src/stm32h7xx_hal_rcc.c ****           {
 846              		.loc 1 572 29 view .LVU323
 847 01b8 401B     		subs	r0, r0, r5
ARM GAS  /tmp/ccLdxC59.s 			page 34


 572:Drivers/STM32H7xx_HAL_Driver/Src/stm32h7xx_hal_rcc.c ****           {
 848              		.loc 1 572 13 view .LVU324
 849 01ba 0228     		cmp	r0, #2
 850 01bc 00F2AB80 		bhi	.L46
 851              	.L65:
 572:Drivers/STM32H7xx_HAL_Driver/Src/stm32h7xx_hal_rcc.c ****           {
 852              		.loc 1 572 11 is_stmt 1 view .LVU325
 570:Drivers/STM32H7xx_HAL_Driver/Src/stm32h7xx_hal_rcc.c ****         {
 853              		.loc 1 570 14 view .LVU326
 570:Drivers/STM32H7xx_HAL_Driver/Src/stm32h7xx_hal_rcc.c ****         {
 854              		.loc 1 570 15 is_stmt 0 view .LVU327
 855 01c0 3368     		ldr	r3, [r6]
 570:Drivers/STM32H7xx_HAL_Driver/Src/stm32h7xx_hal_rcc.c ****         {
 856              		.loc 1 570 14 view .LVU328
 857 01c2 DB05     		lsls	r3, r3, #23
 858 01c4 F6D5     		bpl	.L66
 579:Drivers/STM32H7xx_HAL_Driver/Src/stm32h7xx_hal_rcc.c ****       }
 859              		.loc 1 579 9 is_stmt 1 view .LVU329
 579:Drivers/STM32H7xx_HAL_Driver/Src/stm32h7xx_hal_rcc.c ****       }
 860              		.loc 1 579 9 view .LVU330
 861 01c6 FFF7FEFF 		bl	HAL_GetREVID
 862              	.LVL70:
 863 01ca 41F20303 		movw	r3, #4099
 864 01ce 9842     		cmp	r0, r3
 865 01d0 00F2BB81 		bhi	.L67
 579:Drivers/STM32H7xx_HAL_Driver/Src/stm32h7xx_hal_rcc.c ****       }
 866              		.loc 1 579 9 discriminator 1 view .LVU331
 867 01d4 7368     		ldr	r3, [r6, #4]
 868 01d6 226A     		ldr	r2, [r4, #32]
 869 01d8 23F0F843 		bic	r3, r3, #2080374784
 870 01dc 43EA8263 		orr	r3, r3, r2, lsl #26
 871 01e0 7360     		str	r3, [r6, #4]
 872 01e2 2368     		ldr	r3, [r4]
 873 01e4 78E7     		b	.L59
 874              	.LVL71:
 875              	.L162:
 579:Drivers/STM32H7xx_HAL_Driver/Src/stm32h7xx_hal_rcc.c ****       }
 876              		.loc 1 579 9 is_stmt 0 discriminator 1 view .LVU332
 877              	.LBE4:
 878              	.LBB5:
 477:Drivers/STM32H7xx_HAL_Driver/Src/stm32h7xx_hal_rcc.c ****     {
 879              		.loc 1 477 87 discriminator 2 view .LVU333
 880 01e6 9207     		lsls	r2, r2, #30
 881              	.LVL72:
 477:Drivers/STM32H7xx_HAL_Driver/Src/stm32h7xx_hal_rcc.c ****     {
 882              		.loc 1 477 87 discriminator 2 view .LVU334
 883 01e8 7FF44DAF 		bne	.L50
 884              	.L49:
 480:Drivers/STM32H7xx_HAL_Driver/Src/stm32h7xx_hal_rcc.c ****       {
 885              		.loc 1 480 7 is_stmt 1 view .LVU335
 480:Drivers/STM32H7xx_HAL_Driver/Src/stm32h7xx_hal_rcc.c ****       {
 886              		.loc 1 480 11 is_stmt 0 view .LVU336
 887 01ec 384B     		ldr	r3, .L169
 888              	.LVL73:
 480:Drivers/STM32H7xx_HAL_Driver/Src/stm32h7xx_hal_rcc.c ****       {
 889              		.loc 1 480 11 view .LVU337
 890 01ee 1B68     		ldr	r3, [r3]
ARM GAS  /tmp/ccLdxC59.s 			page 35


 480:Drivers/STM32H7xx_HAL_Driver/Src/stm32h7xx_hal_rcc.c ****       {
 891              		.loc 1 480 9 view .LVU338
 892 01f0 5B07     		lsls	r3, r3, #29
 893 01f2 01D5     		bpl	.L51
 480:Drivers/STM32H7xx_HAL_Driver/Src/stm32h7xx_hal_rcc.c ****       {
 894              		.loc 1 480 54 discriminator 1 view .LVU339
 895 01f4 E368     		ldr	r3, [r4, #12]
 896 01f6 73B3     		cbz	r3, .L110
 897              	.L51:
 488:Drivers/STM32H7xx_HAL_Driver/Src/stm32h7xx_hal_rcc.c ****       }
 898              		.loc 1 488 9 is_stmt 1 view .LVU340
 488:Drivers/STM32H7xx_HAL_Driver/Src/stm32h7xx_hal_rcc.c ****       }
 899              		.loc 1 488 9 view .LVU341
 900 01f8 FFF7FEFF 		bl	HAL_GetREVID
 901              	.LVL74:
 902 01fc 41F20303 		movw	r3, #4099
 903 0200 334A     		ldr	r2, .L169
 904 0202 9842     		cmp	r0, r3
 905 0204 2169     		ldr	r1, [r4, #16]
 906 0206 5368     		ldr	r3, [r2, #4]
 907 0208 00F2C580 		bhi	.L52
 488:Drivers/STM32H7xx_HAL_Driver/Src/stm32h7xx_hal_rcc.c ****       }
 908              		.loc 1 488 9 discriminator 1 view .LVU342
 909 020c 23F47C33 		bic	r3, r3, #258048
 910 0210 43EA0133 		orr	r3, r3, r1, lsl #12
 911 0214 5360     		str	r3, [r2, #4]
 912 0216 2368     		ldr	r3, [r4]
 913 0218 5CE7     		b	.L48
 914              	.L71:
 488:Drivers/STM32H7xx_HAL_Driver/Src/stm32h7xx_hal_rcc.c ****       }
 915              		.loc 1 488 9 is_stmt 0 discriminator 1 view .LVU343
 916              	.LBE5:
 627:Drivers/STM32H7xx_HAL_Driver/Src/stm32h7xx_hal_rcc.c **** 
 917              		.loc 1 627 7 is_stmt 1 view .LVU344
 918 021a 2D4B     		ldr	r3, .L169
 919 021c 5A6F     		ldr	r2, [r3, #116]
 633:Drivers/STM32H7xx_HAL_Driver/Src/stm32h7xx_hal_rcc.c ****       {
 920              		.loc 1 633 13 is_stmt 0 view .LVU345
 921 021e 1E46     		mov	r6, r3
 627:Drivers/STM32H7xx_HAL_Driver/Src/stm32h7xx_hal_rcc.c **** 
 922              		.loc 1 627 7 view .LVU346
 923 0220 22F00102 		bic	r2, r2, #1
 924 0224 5A67     		str	r2, [r3, #116]
 630:Drivers/STM32H7xx_HAL_Driver/Src/stm32h7xx_hal_rcc.c **** 
 925              		.loc 1 630 7 is_stmt 1 view .LVU347
 630:Drivers/STM32H7xx_HAL_Driver/Src/stm32h7xx_hal_rcc.c **** 
 926              		.loc 1 630 19 is_stmt 0 view .LVU348
 927 0226 FFF7FEFF 		bl	HAL_GetTick
 928              	.LVL75:
 929 022a 0546     		mov	r5, r0
 930              	.LVL76:
 633:Drivers/STM32H7xx_HAL_Driver/Src/stm32h7xx_hal_rcc.c ****       {
 931              		.loc 1 633 7 is_stmt 1 view .LVU349
 633:Drivers/STM32H7xx_HAL_Driver/Src/stm32h7xx_hal_rcc.c ****       {
 932              		.loc 1 633 12 is_stmt 0 view .LVU350
 933 022c 04E0     		b	.L74
 934              	.LVL77:
ARM GAS  /tmp/ccLdxC59.s 			page 36


 935              	.L75:
 635:Drivers/STM32H7xx_HAL_Driver/Src/stm32h7xx_hal_rcc.c ****         {
 936              		.loc 1 635 13 view .LVU351
 937 022e FFF7FEFF 		bl	HAL_GetTick
 938              	.LVL78:
 635:Drivers/STM32H7xx_HAL_Driver/Src/stm32h7xx_hal_rcc.c ****         {
 939              		.loc 1 635 27 view .LVU352
 940 0232 401B     		subs	r0, r0, r5
 635:Drivers/STM32H7xx_HAL_Driver/Src/stm32h7xx_hal_rcc.c ****         {
 941              		.loc 1 635 11 view .LVU353
 942 0234 0228     		cmp	r0, #2
 943 0236 6ED8     		bhi	.L46
 944              	.L74:
 635:Drivers/STM32H7xx_HAL_Driver/Src/stm32h7xx_hal_rcc.c ****         {
 945              		.loc 1 635 9 is_stmt 1 view .LVU354
 633:Drivers/STM32H7xx_HAL_Driver/Src/stm32h7xx_hal_rcc.c ****       {
 946              		.loc 1 633 12 view .LVU355
 633:Drivers/STM32H7xx_HAL_Driver/Src/stm32h7xx_hal_rcc.c ****       {
 947              		.loc 1 633 13 is_stmt 0 view .LVU356
 948 0238 736F     		ldr	r3, [r6, #116]
 633:Drivers/STM32H7xx_HAL_Driver/Src/stm32h7xx_hal_rcc.c ****       {
 949              		.loc 1 633 12 view .LVU357
 950 023a 9907     		lsls	r1, r3, #30
 951 023c F7D4     		bmi	.L75
 952 023e 64E7     		b	.L155
 953              	.LVL79:
 954              	.L165:
 955              	.LBB6:
 544:Drivers/STM32H7xx_HAL_Driver/Src/stm32h7xx_hal_rcc.c ****     {
 956              		.loc 1 544 107 discriminator 2 view .LVU358
 957 0240 02F00302 		and	r2, r2, #3
 958              	.LVL80:
 544:Drivers/STM32H7xx_HAL_Driver/Src/stm32h7xx_hal_rcc.c ****     {
 959              		.loc 1 544 87 discriminator 2 view .LVU359
 960 0244 012A     		cmp	r2, #1
 961 0246 A7D1     		bne	.L61
 962              	.L60:
 547:Drivers/STM32H7xx_HAL_Driver/Src/stm32h7xx_hal_rcc.c ****       {
 963              		.loc 1 547 7 is_stmt 1 view .LVU360
 547:Drivers/STM32H7xx_HAL_Driver/Src/stm32h7xx_hal_rcc.c ****       {
 964              		.loc 1 547 11 is_stmt 0 view .LVU361
 965 0248 214B     		ldr	r3, .L169
 966              	.LVL81:
 547:Drivers/STM32H7xx_HAL_Driver/Src/stm32h7xx_hal_rcc.c ****       {
 967              		.loc 1 547 11 view .LVU362
 968 024a 1B68     		ldr	r3, [r3]
 547:Drivers/STM32H7xx_HAL_Driver/Src/stm32h7xx_hal_rcc.c ****       {
 969              		.loc 1 547 9 view .LVU363
 970 024c DA05     		lsls	r2, r3, #23
 971 024e 52D5     		bpl	.L62
 547:Drivers/STM32H7xx_HAL_Driver/Src/stm32h7xx_hal_rcc.c ****       {
 972              		.loc 1 547 54 discriminator 1 view .LVU364
 973 0250 E369     		ldr	r3, [r4, #28]
 974 0252 802B     		cmp	r3, #128
 975 0254 4FD0     		beq	.L62
 976              	.L110:
 547:Drivers/STM32H7xx_HAL_Driver/Src/stm32h7xx_hal_rcc.c ****       {
ARM GAS  /tmp/ccLdxC59.s 			page 37


 977              		.loc 1 547 54 discriminator 1 view .LVU365
 978              	.LBE6:
 849:Drivers/STM32H7xx_HAL_Driver/Src/stm32h7xx_hal_rcc.c ****       }
 979              		.loc 1 849 16 view .LVU366
 980 0256 0120     		movs	r0, #1
 981              		.loc 1 854 1 view .LVU367
 982 0258 F8BD     		pop	{r3, r4, r5, r6, r7, pc}
 983              	.LVL82:
 984              	.L158:
 985              	.LBB7:
 424:Drivers/STM32H7xx_HAL_Driver/Src/stm32h7xx_hal_rcc.c ****     {
 986              		.loc 1 424 107 discriminator 2 view .LVU368
 987 025a 01F00301 		and	r1, r1, #3
 988              	.LVL83:
 424:Drivers/STM32H7xx_HAL_Driver/Src/stm32h7xx_hal_rcc.c ****     {
 989              		.loc 1 424 87 discriminator 2 view .LVU369
 990 025e 0229     		cmp	r1, #2
 991 0260 7FF4E1AE 		bne	.L36
 992              	.L35:
 426:Drivers/STM32H7xx_HAL_Driver/Src/stm32h7xx_hal_rcc.c ****       {
 993              		.loc 1 426 7 is_stmt 1 view .LVU370
 426:Drivers/STM32H7xx_HAL_Driver/Src/stm32h7xx_hal_rcc.c ****       {
 994              		.loc 1 426 11 is_stmt 0 view .LVU371
 995 0264 1A4A     		ldr	r2, .L169
 996              	.LVL84:
 426:Drivers/STM32H7xx_HAL_Driver/Src/stm32h7xx_hal_rcc.c ****       {
 997              		.loc 1 426 11 view .LVU372
 998 0266 1268     		ldr	r2, [r2]
 426:Drivers/STM32H7xx_HAL_Driver/Src/stm32h7xx_hal_rcc.c ****       {
 999              		.loc 1 426 9 view .LVU373
 1000 0268 9203     		lsls	r2, r2, #14
 1001 026a 7FF500AF 		bpl	.L34
 426:Drivers/STM32H7xx_HAL_Driver/Src/stm32h7xx_hal_rcc.c ****       {
 1002              		.loc 1 426 54 discriminator 1 view .LVU374
 1003 026e 6268     		ldr	r2, [r4, #4]
 1004 0270 002A     		cmp	r2, #0
 1005 0272 7FF4FCAE 		bne	.L34
 1006 0276 EEE7     		b	.L110
 1007              	.LVL85:
 1008              	.L82:
 426:Drivers/STM32H7xx_HAL_Driver/Src/stm32h7xx_hal_rcc.c ****       {
 1009              		.loc 1 426 54 discriminator 1 view .LVU375
 1010              	.LBE7:
 689:Drivers/STM32H7xx_HAL_Driver/Src/stm32h7xx_hal_rcc.c **** 
 1011              		.loc 1 689 5 is_stmt 1 view .LVU376
 692:Drivers/STM32H7xx_HAL_Driver/Src/stm32h7xx_hal_rcc.c **** 
 1012              		.loc 1 692 5 view .LVU377
 692:Drivers/STM32H7xx_HAL_Driver/Src/stm32h7xx_hal_rcc.c **** 
 1013              		.loc 1 692 14 is_stmt 0 view .LVU378
 1014 0278 164B     		ldr	r3, .L169+4
 1015 027a 1A68     		ldr	r2, [r3]
 697:Drivers/STM32H7xx_HAL_Driver/Src/stm32h7xx_hal_rcc.c ****     {
 1016              		.loc 1 697 15 view .LVU379
 1017 027c 1E46     		mov	r6, r3
 692:Drivers/STM32H7xx_HAL_Driver/Src/stm32h7xx_hal_rcc.c **** 
 1018              		.loc 1 692 14 view .LVU380
 1019 027e 42F48072 		orr	r2, r2, #256
ARM GAS  /tmp/ccLdxC59.s 			page 38


 1020 0282 1A60     		str	r2, [r3]
 695:Drivers/STM32H7xx_HAL_Driver/Src/stm32h7xx_hal_rcc.c **** 
 1021              		.loc 1 695 5 is_stmt 1 view .LVU381
 695:Drivers/STM32H7xx_HAL_Driver/Src/stm32h7xx_hal_rcc.c **** 
 1022              		.loc 1 695 17 is_stmt 0 view .LVU382
 1023 0284 FFF7FEFF 		bl	HAL_GetTick
 1024              	.LVL86:
 1025 0288 0546     		mov	r5, r0
 1026              	.LVL87:
 697:Drivers/STM32H7xx_HAL_Driver/Src/stm32h7xx_hal_rcc.c ****     {
 1027              		.loc 1 697 5 is_stmt 1 view .LVU383
 697:Drivers/STM32H7xx_HAL_Driver/Src/stm32h7xx_hal_rcc.c ****     {
 1028              		.loc 1 697 10 is_stmt 0 view .LVU384
 1029 028a 04E0     		b	.L85
 1030              	.LVL88:
 1031              	.L86:
 699:Drivers/STM32H7xx_HAL_Driver/Src/stm32h7xx_hal_rcc.c ****       {
 1032              		.loc 1 699 11 view .LVU385
 1033 028c FFF7FEFF 		bl	HAL_GetTick
 1034              	.LVL89:
 699:Drivers/STM32H7xx_HAL_Driver/Src/stm32h7xx_hal_rcc.c ****       {
 1035              		.loc 1 699 25 view .LVU386
 1036 0290 401B     		subs	r0, r0, r5
 699:Drivers/STM32H7xx_HAL_Driver/Src/stm32h7xx_hal_rcc.c ****       {
 1037              		.loc 1 699 9 view .LVU387
 1038 0292 6428     		cmp	r0, #100
 1039 0294 3FD8     		bhi	.L46
 1040              	.L85:
 699:Drivers/STM32H7xx_HAL_Driver/Src/stm32h7xx_hal_rcc.c ****       {
 1041              		.loc 1 699 7 is_stmt 1 view .LVU388
 697:Drivers/STM32H7xx_HAL_Driver/Src/stm32h7xx_hal_rcc.c ****     {
 1042              		.loc 1 697 10 view .LVU389
 697:Drivers/STM32H7xx_HAL_Driver/Src/stm32h7xx_hal_rcc.c ****     {
 1043              		.loc 1 697 15 is_stmt 0 view .LVU390
 1044 0296 3368     		ldr	r3, [r6]
 697:Drivers/STM32H7xx_HAL_Driver/Src/stm32h7xx_hal_rcc.c ****     {
 1045              		.loc 1 697 10 view .LVU391
 1046 0298 DA05     		lsls	r2, r3, #23
 1047 029a F7D5     		bpl	.L86
 706:Drivers/STM32H7xx_HAL_Driver/Src/stm32h7xx_hal_rcc.c ****     /* Check the LSE State */
 1048              		.loc 1 706 5 is_stmt 1 view .LVU392
 706:Drivers/STM32H7xx_HAL_Driver/Src/stm32h7xx_hal_rcc.c ****     /* Check the LSE State */
 1049              		.loc 1 706 5 view .LVU393
 1050 029c A368     		ldr	r3, [r4, #8]
 1051 029e 012B     		cmp	r3, #1
 1052 02a0 00F06381 		beq	.L166
 706:Drivers/STM32H7xx_HAL_Driver/Src/stm32h7xx_hal_rcc.c ****     /* Check the LSE State */
 1053              		.loc 1 706 5 discriminator 2 view .LVU394
 1054 02a4 002B     		cmp	r3, #0
 1055 02a6 00F03681 		beq	.L167
 706:Drivers/STM32H7xx_HAL_Driver/Src/stm32h7xx_hal_rcc.c ****     /* Check the LSE State */
 1056              		.loc 1 706 5 discriminator 5 view .LVU395
 1057 02aa 052B     		cmp	r3, #5
 1058 02ac 084B     		ldr	r3, .L169
 1059 02ae 1A6F     		ldr	r2, [r3, #112]
 1060 02b0 00F06181 		beq	.L168
 706:Drivers/STM32H7xx_HAL_Driver/Src/stm32h7xx_hal_rcc.c ****     /* Check the LSE State */
ARM GAS  /tmp/ccLdxC59.s 			page 39


 1061              		.loc 1 706 5 discriminator 8 view .LVU396
 1062 02b4 22F00102 		bic	r2, r2, #1
 1063 02b8 1A67     		str	r2, [r3, #112]
 706:Drivers/STM32H7xx_HAL_Driver/Src/stm32h7xx_hal_rcc.c ****     /* Check the LSE State */
 1064              		.loc 1 706 5 discriminator 8 view .LVU397
 1065 02ba 1A6F     		ldr	r2, [r3, #112]
 1066 02bc 22F00402 		bic	r2, r2, #4
 1067 02c0 1A67     		str	r2, [r3, #112]
 1068              	.L88:
 711:Drivers/STM32H7xx_HAL_Driver/Src/stm32h7xx_hal_rcc.c **** 
 1069              		.loc 1 711 7 view .LVU398
 711:Drivers/STM32H7xx_HAL_Driver/Src/stm32h7xx_hal_rcc.c **** 
 1070              		.loc 1 711 19 is_stmt 0 view .LVU399
 1071 02c2 FFF7FEFF 		bl	HAL_GetTick
 1072              	.LVL90:
 714:Drivers/STM32H7xx_HAL_Driver/Src/stm32h7xx_hal_rcc.c ****       {
 1073              		.loc 1 714 13 view .LVU400
 1074 02c6 024E     		ldr	r6, .L169
 716:Drivers/STM32H7xx_HAL_Driver/Src/stm32h7xx_hal_rcc.c ****         {
 1075              		.loc 1 716 11 view .LVU401
 1076 02c8 41F28837 		movw	r7, #5000
 711:Drivers/STM32H7xx_HAL_Driver/Src/stm32h7xx_hal_rcc.c **** 
 1077              		.loc 1 711 19 view .LVU402
 1078 02cc 0546     		mov	r5, r0
 1079              	.LVL91:
 714:Drivers/STM32H7xx_HAL_Driver/Src/stm32h7xx_hal_rcc.c ****       {
 1080              		.loc 1 714 7 is_stmt 1 view .LVU403
 714:Drivers/STM32H7xx_HAL_Driver/Src/stm32h7xx_hal_rcc.c ****       {
 1081              		.loc 1 714 12 is_stmt 0 view .LVU404
 1082 02ce 08E0     		b	.L93
 1083              	.L170:
 1084              		.align	2
 1085              	.L169:
 1086 02d0 00440258 		.word	1476543488
 1087 02d4 00480258 		.word	1476544512
 1088              	.LVL92:
 1089              	.L94:
 716:Drivers/STM32H7xx_HAL_Driver/Src/stm32h7xx_hal_rcc.c ****         {
 1090              		.loc 1 716 13 view .LVU405
 1091 02d8 FFF7FEFF 		bl	HAL_GetTick
 1092              	.LVL93:
 716:Drivers/STM32H7xx_HAL_Driver/Src/stm32h7xx_hal_rcc.c ****         {
 1093              		.loc 1 716 27 view .LVU406
 1094 02dc 401B     		subs	r0, r0, r5
 716:Drivers/STM32H7xx_HAL_Driver/Src/stm32h7xx_hal_rcc.c ****         {
 1095              		.loc 1 716 11 view .LVU407
 1096 02de B842     		cmp	r0, r7
 1097 02e0 19D8     		bhi	.L46
 1098              	.L93:
 716:Drivers/STM32H7xx_HAL_Driver/Src/stm32h7xx_hal_rcc.c ****         {
 1099              		.loc 1 716 9 is_stmt 1 view .LVU408
 714:Drivers/STM32H7xx_HAL_Driver/Src/stm32h7xx_hal_rcc.c ****       {
 1100              		.loc 1 714 12 view .LVU409
 714:Drivers/STM32H7xx_HAL_Driver/Src/stm32h7xx_hal_rcc.c ****       {
 1101              		.loc 1 714 13 is_stmt 0 view .LVU410
 1102 02e2 336F     		ldr	r3, [r6, #112]
 714:Drivers/STM32H7xx_HAL_Driver/Src/stm32h7xx_hal_rcc.c ****       {
ARM GAS  /tmp/ccLdxC59.s 			page 40


 1103              		.loc 1 714 12 view .LVU411
 1104 02e4 9B07     		lsls	r3, r3, #30
 1105 02e6 F7D5     		bpl	.L94
 1106 02e8 2DE7     		b	.L95
 1107              	.LVL94:
 1108              	.L159:
 1109              	.LBB8:
 434:Drivers/STM32H7xx_HAL_Driver/Src/stm32h7xx_hal_rcc.c **** 
 1110              		.loc 1 434 7 is_stmt 1 discriminator 1 view .LVU412
 1111 02ea A74A     		ldr	r2, .L171
 1112              	.LVL95:
 434:Drivers/STM32H7xx_HAL_Driver/Src/stm32h7xx_hal_rcc.c **** 
 1113              		.loc 1 434 7 is_stmt 0 discriminator 1 view .LVU413
 1114 02ec 1368     		ldr	r3, [r2]
 1115 02ee 43F48033 		orr	r3, r3, #65536
 1116 02f2 1360     		str	r3, [r2]
 434:Drivers/STM32H7xx_HAL_Driver/Src/stm32h7xx_hal_rcc.c **** 
 1117              		.loc 1 434 7 is_stmt 1 discriminator 1 view .LVU414
 437:Drivers/STM32H7xx_HAL_Driver/Src/stm32h7xx_hal_rcc.c ****       {
 1118              		.loc 1 437 7 discriminator 1 view .LVU415
 1119 02f4 ACE6     		b	.L39
 1120              	.LVL96:
 1121              	.L62:
 437:Drivers/STM32H7xx_HAL_Driver/Src/stm32h7xx_hal_rcc.c ****       {
 1122              		.loc 1 437 7 is_stmt 0 discriminator 1 view .LVU416
 1123              	.LBE8:
 1124              	.LBB9:
 555:Drivers/STM32H7xx_HAL_Driver/Src/stm32h7xx_hal_rcc.c ****       }
 1125              		.loc 1 555 9 is_stmt 1 view .LVU417
 555:Drivers/STM32H7xx_HAL_Driver/Src/stm32h7xx_hal_rcc.c ****       }
 1126              		.loc 1 555 9 view .LVU418
 1127 02f6 FFF7FEFF 		bl	HAL_GetREVID
 1128              	.LVL97:
 1129 02fa 41F20303 		movw	r3, #4099
 1130 02fe A24A     		ldr	r2, .L171
 1131 0300 9842     		cmp	r0, r3
 1132 0302 216A     		ldr	r1, [r4, #32]
 1133 0304 64D8     		bhi	.L63
 555:Drivers/STM32H7xx_HAL_Driver/Src/stm32h7xx_hal_rcc.c ****       }
 1134              		.loc 1 555 9 discriminator 1 view .LVU419
 1135 0306 5368     		ldr	r3, [r2, #4]
 1136 0308 23F0F843 		bic	r3, r3, #2080374784
 1137 030c 43EA8163 		orr	r3, r3, r1, lsl #26
 1138 0310 5360     		str	r3, [r2, #4]
 1139 0312 2368     		ldr	r3, [r4]
 1140 0314 E0E6     		b	.L59
 1141              	.LVL98:
 1142              	.L46:
 555:Drivers/STM32H7xx_HAL_Driver/Src/stm32h7xx_hal_rcc.c ****       }
 1143              		.loc 1 555 9 is_stmt 0 discriminator 1 view .LVU420
 1144              	.LBE9:
 1145              	.LBB10:
 447:Drivers/STM32H7xx_HAL_Driver/Src/stm32h7xx_hal_rcc.c ****           }
 1146              		.loc 1 447 20 view .LVU421
 1147 0316 0320     		movs	r0, #3
 1148              	.LBE10:
 1149              		.loc 1 854 1 view .LVU422
ARM GAS  /tmp/ccLdxC59.s 			page 41


 1150 0318 F8BD     		pop	{r3, r4, r5, r6, r7, pc}
 1151              	.LVL99:
 1152              	.L160:
 1153              	.LBB11:
 434:Drivers/STM32H7xx_HAL_Driver/Src/stm32h7xx_hal_rcc.c **** 
 1154              		.loc 1 434 7 is_stmt 1 discriminator 4 view .LVU423
 1155 031a 9B4B     		ldr	r3, .L171
 1156 031c 1A68     		ldr	r2, [r3]
 1157              	.LVL100:
 457:Drivers/STM32H7xx_HAL_Driver/Src/stm32h7xx_hal_rcc.c ****         {
 1158              		.loc 1 457 15 is_stmt 0 discriminator 4 view .LVU424
 1159 031e 1E46     		mov	r6, r3
 434:Drivers/STM32H7xx_HAL_Driver/Src/stm32h7xx_hal_rcc.c **** 
 1160              		.loc 1 434 7 discriminator 4 view .LVU425
 1161 0320 22F48032 		bic	r2, r2, #65536
 1162 0324 1A60     		str	r2, [r3]
 434:Drivers/STM32H7xx_HAL_Driver/Src/stm32h7xx_hal_rcc.c **** 
 1163              		.loc 1 434 7 is_stmt 1 discriminator 4 view .LVU426
 1164 0326 1A68     		ldr	r2, [r3]
 1165 0328 22F48022 		bic	r2, r2, #262144
 1166 032c 1A60     		str	r2, [r3]
 434:Drivers/STM32H7xx_HAL_Driver/Src/stm32h7xx_hal_rcc.c **** 
 1167              		.loc 1 434 7 discriminator 4 view .LVU427
 437:Drivers/STM32H7xx_HAL_Driver/Src/stm32h7xx_hal_rcc.c ****       {
 1168              		.loc 1 437 7 discriminator 4 view .LVU428
 454:Drivers/STM32H7xx_HAL_Driver/Src/stm32h7xx_hal_rcc.c **** 
 1169              		.loc 1 454 9 discriminator 4 view .LVU429
 454:Drivers/STM32H7xx_HAL_Driver/Src/stm32h7xx_hal_rcc.c **** 
 1170              		.loc 1 454 21 is_stmt 0 discriminator 4 view .LVU430
 1171 032e FFF7FEFF 		bl	HAL_GetTick
 1172              	.LVL101:
 454:Drivers/STM32H7xx_HAL_Driver/Src/stm32h7xx_hal_rcc.c **** 
 1173              		.loc 1 454 21 discriminator 4 view .LVU431
 1174 0332 0546     		mov	r5, r0
 1175              	.LVL102:
 457:Drivers/STM32H7xx_HAL_Driver/Src/stm32h7xx_hal_rcc.c ****         {
 1176              		.loc 1 457 9 is_stmt 1 discriminator 4 view .LVU432
 457:Drivers/STM32H7xx_HAL_Driver/Src/stm32h7xx_hal_rcc.c ****         {
 1177              		.loc 1 457 14 is_stmt 0 discriminator 4 view .LVU433
 1178 0334 04E0     		b	.L41
 1179              	.LVL103:
 1180              	.L47:
 459:Drivers/STM32H7xx_HAL_Driver/Src/stm32h7xx_hal_rcc.c ****           {
 1181              		.loc 1 459 26 view .LVU434
 1182 0336 FFF7FEFF 		bl	HAL_GetTick
 1183              	.LVL104:
 459:Drivers/STM32H7xx_HAL_Driver/Src/stm32h7xx_hal_rcc.c ****           {
 1184              		.loc 1 459 40 view .LVU435
 1185 033a 401B     		subs	r0, r0, r5
 459:Drivers/STM32H7xx_HAL_Driver/Src/stm32h7xx_hal_rcc.c ****           {
 1186              		.loc 1 459 13 view .LVU436
 1187 033c 6428     		cmp	r0, #100
 1188 033e EAD8     		bhi	.L46
 1189              	.L41:
 459:Drivers/STM32H7xx_HAL_Driver/Src/stm32h7xx_hal_rcc.c ****           {
 1190              		.loc 1 459 11 is_stmt 1 view .LVU437
 457:Drivers/STM32H7xx_HAL_Driver/Src/stm32h7xx_hal_rcc.c ****         {
ARM GAS  /tmp/ccLdxC59.s 			page 42


 1191              		.loc 1 457 14 view .LVU438
 457:Drivers/STM32H7xx_HAL_Driver/Src/stm32h7xx_hal_rcc.c ****         {
 1192              		.loc 1 457 15 is_stmt 0 view .LVU439
 1193 0340 3368     		ldr	r3, [r6]
 457:Drivers/STM32H7xx_HAL_Driver/Src/stm32h7xx_hal_rcc.c ****         {
 1194              		.loc 1 457 14 view .LVU440
 1195 0342 9803     		lsls	r0, r3, #14
 1196 0344 F7D4     		bmi	.L47
 1197 0346 91E6     		b	.L154
 1198              	.LVL105:
 1199              	.L77:
 457:Drivers/STM32H7xx_HAL_Driver/Src/stm32h7xx_hal_rcc.c ****         {
 1200              		.loc 1 457 14 view .LVU441
 1201              	.LBE11:
 670:Drivers/STM32H7xx_HAL_Driver/Src/stm32h7xx_hal_rcc.c **** 
 1202              		.loc 1 670 7 is_stmt 1 view .LVU442
 1203 0348 8F4B     		ldr	r3, .L171
 1204 034a 1A68     		ldr	r2, [r3]
 676:Drivers/STM32H7xx_HAL_Driver/Src/stm32h7xx_hal_rcc.c ****       {
 1205              		.loc 1 676 13 is_stmt 0 view .LVU443
 1206 034c 1E46     		mov	r6, r3
 670:Drivers/STM32H7xx_HAL_Driver/Src/stm32h7xx_hal_rcc.c **** 
 1207              		.loc 1 670 7 view .LVU444
 1208 034e 22F48052 		bic	r2, r2, #4096
 1209 0352 1A60     		str	r2, [r3]
 670:Drivers/STM32H7xx_HAL_Driver/Src/stm32h7xx_hal_rcc.c **** 
 1210              		.loc 1 670 32 is_stmt 1 view .LVU445
 673:Drivers/STM32H7xx_HAL_Driver/Src/stm32h7xx_hal_rcc.c **** 
 1211              		.loc 1 673 7 view .LVU446
 673:Drivers/STM32H7xx_HAL_Driver/Src/stm32h7xx_hal_rcc.c **** 
 1212              		.loc 1 673 19 is_stmt 0 view .LVU447
 1213 0354 FFF7FEFF 		bl	HAL_GetTick
 1214              	.LVL106:
 1215 0358 0546     		mov	r5, r0
 1216              	.LVL107:
 676:Drivers/STM32H7xx_HAL_Driver/Src/stm32h7xx_hal_rcc.c ****       {
 1217              		.loc 1 676 7 is_stmt 1 view .LVU448
 676:Drivers/STM32H7xx_HAL_Driver/Src/stm32h7xx_hal_rcc.c ****       {
 1218              		.loc 1 676 12 is_stmt 0 view .LVU449
 1219 035a 04E0     		b	.L80
 1220              	.LVL108:
 1221              	.L81:
 678:Drivers/STM32H7xx_HAL_Driver/Src/stm32h7xx_hal_rcc.c ****         {
 1222              		.loc 1 678 13 view .LVU450
 1223 035c FFF7FEFF 		bl	HAL_GetTick
 1224              	.LVL109:
 678:Drivers/STM32H7xx_HAL_Driver/Src/stm32h7xx_hal_rcc.c ****         {
 1225              		.loc 1 678 27 view .LVU451
 1226 0360 401B     		subs	r0, r0, r5
 678:Drivers/STM32H7xx_HAL_Driver/Src/stm32h7xx_hal_rcc.c ****         {
 1227              		.loc 1 678 11 view .LVU452
 1228 0362 0228     		cmp	r0, #2
 1229 0364 D7D8     		bhi	.L46
 1230              	.L80:
 678:Drivers/STM32H7xx_HAL_Driver/Src/stm32h7xx_hal_rcc.c ****         {
 1231              		.loc 1 678 9 is_stmt 1 view .LVU453
 676:Drivers/STM32H7xx_HAL_Driver/Src/stm32h7xx_hal_rcc.c ****       {
ARM GAS  /tmp/ccLdxC59.s 			page 43


 1232              		.loc 1 676 12 view .LVU454
 676:Drivers/STM32H7xx_HAL_Driver/Src/stm32h7xx_hal_rcc.c ****       {
 1233              		.loc 1 676 13 is_stmt 0 view .LVU455
 1234 0366 3368     		ldr	r3, [r6]
 676:Drivers/STM32H7xx_HAL_Driver/Src/stm32h7xx_hal_rcc.c ****       {
 1235              		.loc 1 676 12 view .LVU456
 1236 0368 9804     		lsls	r0, r3, #18
 1237 036a F7D4     		bmi	.L81
 1238 036c E7E6     		b	.L156
 1239              	.LVL110:
 1240              	.L64:
 1241              	.LBB12:
 584:Drivers/STM32H7xx_HAL_Driver/Src/stm32h7xx_hal_rcc.c **** 
 1242              		.loc 1 584 9 is_stmt 1 view .LVU457
 1243 036e 864B     		ldr	r3, .L171
 1244 0370 1A68     		ldr	r2, [r3]
 590:Drivers/STM32H7xx_HAL_Driver/Src/stm32h7xx_hal_rcc.c ****         {
 1245              		.loc 1 590 15 is_stmt 0 view .LVU458
 1246 0372 1E46     		mov	r6, r3
 584:Drivers/STM32H7xx_HAL_Driver/Src/stm32h7xx_hal_rcc.c **** 
 1247              		.loc 1 584 9 view .LVU459
 1248 0374 22F08002 		bic	r2, r2, #128
 1249 0378 1A60     		str	r2, [r3]
 587:Drivers/STM32H7xx_HAL_Driver/Src/stm32h7xx_hal_rcc.c **** 
 1250              		.loc 1 587 9 is_stmt 1 view .LVU460
 587:Drivers/STM32H7xx_HAL_Driver/Src/stm32h7xx_hal_rcc.c **** 
 1251              		.loc 1 587 21 is_stmt 0 view .LVU461
 1252 037a FFF7FEFF 		bl	HAL_GetTick
 1253              	.LVL111:
 1254 037e 0546     		mov	r5, r0
 1255              	.LVL112:
 590:Drivers/STM32H7xx_HAL_Driver/Src/stm32h7xx_hal_rcc.c ****         {
 1256              		.loc 1 590 9 is_stmt 1 view .LVU462
 590:Drivers/STM32H7xx_HAL_Driver/Src/stm32h7xx_hal_rcc.c ****         {
 1257              		.loc 1 590 14 is_stmt 0 view .LVU463
 1258 0380 04E0     		b	.L68
 1259              	.LVL113:
 1260              	.L69:
 592:Drivers/STM32H7xx_HAL_Driver/Src/stm32h7xx_hal_rcc.c ****           {
 1261              		.loc 1 592 15 view .LVU464
 1262 0382 FFF7FEFF 		bl	HAL_GetTick
 1263              	.LVL114:
 592:Drivers/STM32H7xx_HAL_Driver/Src/stm32h7xx_hal_rcc.c ****           {
 1264              		.loc 1 592 29 view .LVU465
 1265 0386 401B     		subs	r0, r0, r5
 592:Drivers/STM32H7xx_HAL_Driver/Src/stm32h7xx_hal_rcc.c ****           {
 1266              		.loc 1 592 13 view .LVU466
 1267 0388 0228     		cmp	r0, #2
 1268 038a C4D8     		bhi	.L46
 1269              	.L68:
 592:Drivers/STM32H7xx_HAL_Driver/Src/stm32h7xx_hal_rcc.c ****           {
 1270              		.loc 1 592 11 is_stmt 1 view .LVU467
 590:Drivers/STM32H7xx_HAL_Driver/Src/stm32h7xx_hal_rcc.c ****         {
 1271              		.loc 1 590 14 view .LVU468
 590:Drivers/STM32H7xx_HAL_Driver/Src/stm32h7xx_hal_rcc.c ****         {
 1272              		.loc 1 590 15 is_stmt 0 view .LVU469
 1273 038c 3368     		ldr	r3, [r6]
ARM GAS  /tmp/ccLdxC59.s 			page 44


 590:Drivers/STM32H7xx_HAL_Driver/Src/stm32h7xx_hal_rcc.c ****         {
 1274              		.loc 1 590 14 view .LVU470
 1275 038e DF05     		lsls	r7, r3, #23
 1276 0390 F7D4     		bmi	.L69
 1277 0392 2368     		ldr	r3, [r4]
 1278 0394 A0E6     		b	.L59
 1279              	.LVL115:
 1280              	.L52:
 590:Drivers/STM32H7xx_HAL_Driver/Src/stm32h7xx_hal_rcc.c ****         {
 1281              		.loc 1 590 14 view .LVU471
 1282              	.LBE12:
 1283              	.LBB13:
 488:Drivers/STM32H7xx_HAL_Driver/Src/stm32h7xx_hal_rcc.c ****       }
 1284              		.loc 1 488 9 is_stmt 1 discriminator 2 view .LVU472
 1285 0396 23F0FE43 		bic	r3, r3, #2130706432
 1286 039a 43EA0163 		orr	r3, r3, r1, lsl #24
 1287 039e 5360     		str	r3, [r2, #4]
 1288 03a0 2368     		ldr	r3, [r4]
 1289 03a2 97E6     		b	.L48
 1290              	.LVL116:
 1291              	.L53:
 518:Drivers/STM32H7xx_HAL_Driver/Src/stm32h7xx_hal_rcc.c **** 
 1292              		.loc 1 518 9 view .LVU473
 1293 03a4 784B     		ldr	r3, .L171
 1294              	.LVL117:
 518:Drivers/STM32H7xx_HAL_Driver/Src/stm32h7xx_hal_rcc.c **** 
 1295              		.loc 1 518 9 is_stmt 0 view .LVU474
 1296 03a6 1A68     		ldr	r2, [r3]
 524:Drivers/STM32H7xx_HAL_Driver/Src/stm32h7xx_hal_rcc.c ****         {
 1297              		.loc 1 524 15 view .LVU475
 1298 03a8 1E46     		mov	r6, r3
 518:Drivers/STM32H7xx_HAL_Driver/Src/stm32h7xx_hal_rcc.c **** 
 1299              		.loc 1 518 9 view .LVU476
 1300 03aa 22F00102 		bic	r2, r2, #1
 1301 03ae 1A60     		str	r2, [r3]
 521:Drivers/STM32H7xx_HAL_Driver/Src/stm32h7xx_hal_rcc.c **** 
 1302              		.loc 1 521 9 is_stmt 1 view .LVU477
 521:Drivers/STM32H7xx_HAL_Driver/Src/stm32h7xx_hal_rcc.c **** 
 1303              		.loc 1 521 21 is_stmt 0 view .LVU478
 1304 03b0 FFF7FEFF 		bl	HAL_GetTick
 1305              	.LVL118:
 1306 03b4 0546     		mov	r5, r0
 1307              	.LVL119:
 524:Drivers/STM32H7xx_HAL_Driver/Src/stm32h7xx_hal_rcc.c ****         {
 1308              		.loc 1 524 9 is_stmt 1 view .LVU479
 524:Drivers/STM32H7xx_HAL_Driver/Src/stm32h7xx_hal_rcc.c ****         {
 1309              		.loc 1 524 14 is_stmt 0 view .LVU480
 1310 03b6 04E0     		b	.L57
 1311              	.LVL120:
 1312              	.L58:
 526:Drivers/STM32H7xx_HAL_Driver/Src/stm32h7xx_hal_rcc.c ****           {
 1313              		.loc 1 526 15 view .LVU481
 1314 03b8 FFF7FEFF 		bl	HAL_GetTick
 1315              	.LVL121:
 526:Drivers/STM32H7xx_HAL_Driver/Src/stm32h7xx_hal_rcc.c ****           {
 1316              		.loc 1 526 29 view .LVU482
 1317 03bc 401B     		subs	r0, r0, r5
ARM GAS  /tmp/ccLdxC59.s 			page 45


 526:Drivers/STM32H7xx_HAL_Driver/Src/stm32h7xx_hal_rcc.c ****           {
 1318              		.loc 1 526 13 view .LVU483
 1319 03be 0228     		cmp	r0, #2
 1320 03c0 A9D8     		bhi	.L46
 1321              	.L57:
 526:Drivers/STM32H7xx_HAL_Driver/Src/stm32h7xx_hal_rcc.c ****           {
 1322              		.loc 1 526 11 is_stmt 1 view .LVU484
 524:Drivers/STM32H7xx_HAL_Driver/Src/stm32h7xx_hal_rcc.c ****         {
 1323              		.loc 1 524 14 view .LVU485
 524:Drivers/STM32H7xx_HAL_Driver/Src/stm32h7xx_hal_rcc.c ****         {
 1324              		.loc 1 524 15 is_stmt 0 view .LVU486
 1325 03c2 3368     		ldr	r3, [r6]
 524:Drivers/STM32H7xx_HAL_Driver/Src/stm32h7xx_hal_rcc.c ****         {
 1326              		.loc 1 524 14 view .LVU487
 1327 03c4 5807     		lsls	r0, r3, #29
 1328 03c6 F7D4     		bmi	.L58
 1329 03c8 2368     		ldr	r3, [r4]
 1330 03ca 83E6     		b	.L48
 1331              	.LVL122:
 1332              	.L157:
 1333              	.LCFI2:
 1334              		.cfi_def_cfa_offset 0
 1335              		.cfi_restore 3
 1336              		.cfi_restore 4
 1337              		.cfi_restore 5
 1338              		.cfi_restore 6
 1339              		.cfi_restore 7
 1340              		.cfi_restore 14
 524:Drivers/STM32H7xx_HAL_Driver/Src/stm32h7xx_hal_rcc.c ****         {
 1341              		.loc 1 524 14 view .LVU488
 1342              	.LBE13:
 410:Drivers/STM32H7xx_HAL_Driver/Src/stm32h7xx_hal_rcc.c ****   }
 1343              		.loc 1 410 12 view .LVU489
 1344 03cc 0120     		movs	r0, #1
 1345              	.LVL123:
 1346              		.loc 1 854 1 view .LVU490
 1347 03ce 7047     		bx	lr
 1348              	.LVL124:
 1349              	.L63:
 1350              	.LCFI3:
 1351              		.cfi_def_cfa_offset 24
 1352              		.cfi_offset 3, -24
 1353              		.cfi_offset 4, -20
 1354              		.cfi_offset 5, -16
 1355              		.cfi_offset 6, -12
 1356              		.cfi_offset 7, -8
 1357              		.cfi_offset 14, -4
 1358              	.LBB14:
 555:Drivers/STM32H7xx_HAL_Driver/Src/stm32h7xx_hal_rcc.c ****       }
 1359              		.loc 1 555 9 is_stmt 1 discriminator 2 view .LVU491
 1360 03d0 D368     		ldr	r3, [r2, #12]
 1361 03d2 23F07C53 		bic	r3, r3, #1056964608
 1362 03d6 43EA0163 		orr	r3, r3, r1, lsl #24
 1363 03da D360     		str	r3, [r2, #12]
 1364 03dc 2368     		ldr	r3, [r4]
 1365 03de 7BE6     		b	.L59
 1366              	.L164:
ARM GAS  /tmp/ccLdxC59.s 			page 46


 555:Drivers/STM32H7xx_HAL_Driver/Src/stm32h7xx_hal_rcc.c ****       }
 1367              		.loc 1 555 9 is_stmt 0 discriminator 2 view .LVU492
 1368              	.LBE14:
 748:Drivers/STM32H7xx_HAL_Driver/Src/stm32h7xx_hal_rcc.c ****         assert_param(IS_RCC_PLLM_VALUE(RCC_OscInitStruct->PLL.PLLM));
 1369              		.loc 1 748 9 is_stmt 1 view .LVU493
 749:Drivers/STM32H7xx_HAL_Driver/Src/stm32h7xx_hal_rcc.c ****         assert_param(IS_RCC_PLLN_VALUE(RCC_OscInitStruct->PLL.PLLN));
 1370              		.loc 1 749 9 view .LVU494
 750:Drivers/STM32H7xx_HAL_Driver/Src/stm32h7xx_hal_rcc.c ****         assert_param(IS_RCC_PLLP_VALUE(RCC_OscInitStruct->PLL.PLLP));
 1371              		.loc 1 750 9 view .LVU495
 751:Drivers/STM32H7xx_HAL_Driver/Src/stm32h7xx_hal_rcc.c ****         assert_param(IS_RCC_PLLQ_VALUE(RCC_OscInitStruct->PLL.PLLQ));
 1372              		.loc 1 751 9 view .LVU496
 752:Drivers/STM32H7xx_HAL_Driver/Src/stm32h7xx_hal_rcc.c ****         assert_param(IS_RCC_PLLR_VALUE(RCC_OscInitStruct->PLL.PLLR));
 1373              		.loc 1 752 9 view .LVU497
 753:Drivers/STM32H7xx_HAL_Driver/Src/stm32h7xx_hal_rcc.c ****         assert_param(IS_RCC_PLLFRACN_VALUE(RCC_OscInitStruct->PLL.PLLFRACN));
 1374              		.loc 1 753 9 view .LVU498
 754:Drivers/STM32H7xx_HAL_Driver/Src/stm32h7xx_hal_rcc.c **** 
 1375              		.loc 1 754 9 view .LVU499
 757:Drivers/STM32H7xx_HAL_Driver/Src/stm32h7xx_hal_rcc.c **** 
 1376              		.loc 1 757 9 view .LVU500
 760:Drivers/STM32H7xx_HAL_Driver/Src/stm32h7xx_hal_rcc.c **** 
 1377              		.loc 1 760 9 view .LVU501
 760:Drivers/STM32H7xx_HAL_Driver/Src/stm32h7xx_hal_rcc.c **** 
 1378              		.loc 1 760 21 is_stmt 0 view .LVU502
 1379 03e0 FFF7FEFF 		bl	HAL_GetTick
 1380              	.LVL125:
 1381 03e4 0646     		mov	r6, r0
 1382              	.LVL126:
 763:Drivers/STM32H7xx_HAL_Driver/Src/stm32h7xx_hal_rcc.c ****         {
 1383              		.loc 1 763 9 is_stmt 1 view .LVU503
 763:Drivers/STM32H7xx_HAL_Driver/Src/stm32h7xx_hal_rcc.c ****         {
 1384              		.loc 1 763 14 is_stmt 0 view .LVU504
 1385 03e6 04E0     		b	.L99
 1386              	.LVL127:
 1387              	.L100:
 765:Drivers/STM32H7xx_HAL_Driver/Src/stm32h7xx_hal_rcc.c ****           {
 1388              		.loc 1 765 15 view .LVU505
 1389 03e8 FFF7FEFF 		bl	HAL_GetTick
 1390              	.LVL128:
 765:Drivers/STM32H7xx_HAL_Driver/Src/stm32h7xx_hal_rcc.c ****           {
 1391              		.loc 1 765 29 view .LVU506
 1392 03ec 801B     		subs	r0, r0, r6
 765:Drivers/STM32H7xx_HAL_Driver/Src/stm32h7xx_hal_rcc.c ****           {
 1393              		.loc 1 765 13 view .LVU507
 1394 03ee 0228     		cmp	r0, #2
 1395 03f0 91D8     		bhi	.L46
 1396              	.L99:
 765:Drivers/STM32H7xx_HAL_Driver/Src/stm32h7xx_hal_rcc.c ****           {
 1397              		.loc 1 765 11 is_stmt 1 view .LVU508
 763:Drivers/STM32H7xx_HAL_Driver/Src/stm32h7xx_hal_rcc.c ****         {
 1398              		.loc 1 763 14 view .LVU509
 763:Drivers/STM32H7xx_HAL_Driver/Src/stm32h7xx_hal_rcc.c ****         {
 1399              		.loc 1 763 15 is_stmt 0 view .LVU510
 1400 03f2 2B68     		ldr	r3, [r5]
 763:Drivers/STM32H7xx_HAL_Driver/Src/stm32h7xx_hal_rcc.c ****         {
 1401              		.loc 1 763 14 view .LVU511
 1402 03f4 9901     		lsls	r1, r3, #6
 1403 03f6 F7D4     		bmi	.L100
ARM GAS  /tmp/ccLdxC59.s 			page 47


 772:Drivers/STM32H7xx_HAL_Driver/Src/stm32h7xx_hal_rcc.c ****                              RCC_OscInitStruct->PLL.PLLM,
 1404              		.loc 1 772 9 is_stmt 1 view .LVU512
 772:Drivers/STM32H7xx_HAL_Driver/Src/stm32h7xx_hal_rcc.c ****                              RCC_OscInitStruct->PLL.PLLM,
 1405              		.loc 1 772 9 view .LVU513
 1406 03f8 AA6A     		ldr	r2, [r5, #40]
 1407 03fa 644B     		ldr	r3, .L171+4
 1408 03fc A06A     		ldr	r0, [r4, #40]
 1409 03fe 1340     		ands	r3, r3, r2
 1410 0400 E26A     		ldr	r2, [r4, #44]
 783:Drivers/STM32H7xx_HAL_Driver/Src/stm32h7xx_hal_rcc.c **** 
 1411              		.loc 1 783 10 is_stmt 0 view .LVU514
 1412 0402 6349     		ldr	r1, .L171+8
 772:Drivers/STM32H7xx_HAL_Driver/Src/stm32h7xx_hal_rcc.c ****                              RCC_OscInitStruct->PLL.PLLM,
 1413              		.loc 1 772 9 view .LVU515
 1414 0404 0343     		orrs	r3, r3, r0
 810:Drivers/STM32H7xx_HAL_Driver/Src/stm32h7xx_hal_rcc.c ****         {
 1415              		.loc 1 810 15 view .LVU516
 1416 0406 604E     		ldr	r6, .L171
 1417              	.LVL129:
 772:Drivers/STM32H7xx_HAL_Driver/Src/stm32h7xx_hal_rcc.c ****                              RCC_OscInitStruct->PLL.PLLM,
 1418              		.loc 1 772 9 view .LVU517
 1419 0408 43EA0213 		orr	r3, r3, r2, lsl #4
 1420 040c AB62     		str	r3, [r5, #40]
 772:Drivers/STM32H7xx_HAL_Driver/Src/stm32h7xx_hal_rcc.c ****                              RCC_OscInitStruct->PLL.PLLM,
 1421              		.loc 1 772 9 is_stmt 1 view .LVU518
 1422 040e 276B     		ldr	r7, [r4, #48]
 1423 0410 D4E90D32 		ldrd	r3, r2, [r4, #52]
 1424 0414 013F     		subs	r7, r7, #1
 1425 0416 501E     		subs	r0, r2, #1
 1426 0418 013B     		subs	r3, r3, #1
 1427 041a E26B     		ldr	r2, [r4, #60]
 1428 041c C7F30807 		ubfx	r7, r7, #0, #9
 1429 0420 5B02     		lsls	r3, r3, #9
 1430 0422 0004     		lsls	r0, r0, #16
 1431 0424 013A     		subs	r2, r2, #1
 1432 0426 9BB2     		uxth	r3, r3
 1433 0428 00F4FE00 		and	r0, r0, #8323072
 1434 042c 1206     		lsls	r2, r2, #24
 1435 042e 0343     		orrs	r3, r3, r0
 1436 0430 02F0FE42 		and	r2, r2, #2130706432
 1437 0434 3B43     		orrs	r3, r3, r7
 1438 0436 1343     		orrs	r3, r3, r2
 1439 0438 2B63     		str	r3, [r5, #48]
 772:Drivers/STM32H7xx_HAL_Driver/Src/stm32h7xx_hal_rcc.c ****                              RCC_OscInitStruct->PLL.PLLM,
 1440              		.loc 1 772 9 view .LVU519
 780:Drivers/STM32H7xx_HAL_Driver/Src/stm32h7xx_hal_rcc.c **** 
 1441              		.loc 1 780 10 view .LVU520
 1442 043a EB6A     		ldr	r3, [r5, #44]
 1443 043c 23F00103 		bic	r3, r3, #1
 1444 0440 EB62     		str	r3, [r5, #44]
 783:Drivers/STM32H7xx_HAL_Driver/Src/stm32h7xx_hal_rcc.c **** 
 1445              		.loc 1 783 10 view .LVU521
 1446 0442 6A6B     		ldr	r2, [r5, #52]
 1447 0444 A36C     		ldr	r3, [r4, #72]
 1448 0446 1140     		ands	r1, r1, r2
 1449 0448 41EAC301 		orr	r1, r1, r3, lsl #3
 1450 044c 6963     		str	r1, [r5, #52]
ARM GAS  /tmp/ccLdxC59.s 			page 48


 786:Drivers/STM32H7xx_HAL_Driver/Src/stm32h7xx_hal_rcc.c **** 
 1451              		.loc 1 786 9 view .LVU522
 1452 044e EB6A     		ldr	r3, [r5, #44]
 1453 0450 226C     		ldr	r2, [r4, #64]
 1454 0452 23F00C03 		bic	r3, r3, #12
 1455 0456 1343     		orrs	r3, r3, r2
 1456 0458 EB62     		str	r3, [r5, #44]
 789:Drivers/STM32H7xx_HAL_Driver/Src/stm32h7xx_hal_rcc.c **** 
 1457              		.loc 1 789 9 view .LVU523
 1458 045a EB6A     		ldr	r3, [r5, #44]
 1459 045c 626C     		ldr	r2, [r4, #68]
 1460 045e 23F00203 		bic	r3, r3, #2
 1461 0462 1343     		orrs	r3, r3, r2
 1462 0464 EB62     		str	r3, [r5, #44]
 792:Drivers/STM32H7xx_HAL_Driver/Src/stm32h7xx_hal_rcc.c **** 
 1463              		.loc 1 792 10 view .LVU524
 1464 0466 EB6A     		ldr	r3, [r5, #44]
 1465 0468 43F48033 		orr	r3, r3, #65536
 1466 046c EB62     		str	r3, [r5, #44]
 795:Drivers/STM32H7xx_HAL_Driver/Src/stm32h7xx_hal_rcc.c **** 
 1467              		.loc 1 795 10 view .LVU525
 1468 046e EB6A     		ldr	r3, [r5, #44]
 1469 0470 43F40033 		orr	r3, r3, #131072
 1470 0474 EB62     		str	r3, [r5, #44]
 798:Drivers/STM32H7xx_HAL_Driver/Src/stm32h7xx_hal_rcc.c **** 
 1471              		.loc 1 798 10 view .LVU526
 1472 0476 EB6A     		ldr	r3, [r5, #44]
 1473 0478 43F48023 		orr	r3, r3, #262144
 1474 047c EB62     		str	r3, [r5, #44]
 801:Drivers/STM32H7xx_HAL_Driver/Src/stm32h7xx_hal_rcc.c **** 
 1475              		.loc 1 801 10 view .LVU527
 1476 047e EB6A     		ldr	r3, [r5, #44]
 1477 0480 43F00103 		orr	r3, r3, #1
 1478 0484 EB62     		str	r3, [r5, #44]
 804:Drivers/STM32H7xx_HAL_Driver/Src/stm32h7xx_hal_rcc.c **** 
 1479              		.loc 1 804 9 view .LVU528
 1480 0486 2B68     		ldr	r3, [r5]
 1481 0488 43F08073 		orr	r3, r3, #16777216
 1482 048c 2B60     		str	r3, [r5]
 807:Drivers/STM32H7xx_HAL_Driver/Src/stm32h7xx_hal_rcc.c **** 
 1483              		.loc 1 807 9 view .LVU529
 807:Drivers/STM32H7xx_HAL_Driver/Src/stm32h7xx_hal_rcc.c **** 
 1484              		.loc 1 807 21 is_stmt 0 view .LVU530
 1485 048e FFF7FEFF 		bl	HAL_GetTick
 1486              	.LVL130:
 1487 0492 0446     		mov	r4, r0
 1488              	.LVL131:
 810:Drivers/STM32H7xx_HAL_Driver/Src/stm32h7xx_hal_rcc.c ****         {
 1489              		.loc 1 810 9 is_stmt 1 view .LVU531
 810:Drivers/STM32H7xx_HAL_Driver/Src/stm32h7xx_hal_rcc.c ****         {
 1490              		.loc 1 810 14 is_stmt 0 view .LVU532
 1491 0494 05E0     		b	.L101
 1492              	.LVL132:
 1493              	.L102:
 812:Drivers/STM32H7xx_HAL_Driver/Src/stm32h7xx_hal_rcc.c ****           {
 1494              		.loc 1 812 15 view .LVU533
 1495 0496 FFF7FEFF 		bl	HAL_GetTick
ARM GAS  /tmp/ccLdxC59.s 			page 49


 1496              	.LVL133:
 812:Drivers/STM32H7xx_HAL_Driver/Src/stm32h7xx_hal_rcc.c ****           {
 1497              		.loc 1 812 29 view .LVU534
 1498 049a 001B     		subs	r0, r0, r4
 812:Drivers/STM32H7xx_HAL_Driver/Src/stm32h7xx_hal_rcc.c ****           {
 1499              		.loc 1 812 13 view .LVU535
 1500 049c 0228     		cmp	r0, #2
 1501 049e 3FF63AAF 		bhi	.L46
 1502              	.L101:
 812:Drivers/STM32H7xx_HAL_Driver/Src/stm32h7xx_hal_rcc.c ****           {
 1503              		.loc 1 812 11 is_stmt 1 view .LVU536
 810:Drivers/STM32H7xx_HAL_Driver/Src/stm32h7xx_hal_rcc.c ****         {
 1504              		.loc 1 810 14 view .LVU537
 810:Drivers/STM32H7xx_HAL_Driver/Src/stm32h7xx_hal_rcc.c ****         {
 1505              		.loc 1 810 15 is_stmt 0 view .LVU538
 1506 04a2 3368     		ldr	r3, [r6]
 810:Drivers/STM32H7xx_HAL_Driver/Src/stm32h7xx_hal_rcc.c ****         {
 1507              		.loc 1 810 14 view .LVU539
 1508 04a4 9A01     		lsls	r2, r3, #6
 1509 04a6 F6D5     		bpl	.L102
 1510 04a8 6BE6     		b	.L84
 1511              	.LVL134:
 1512              	.L97:
 839:Drivers/STM32H7xx_HAL_Driver/Src/stm32h7xx_hal_rcc.c ****       temp2_pllckcfg = RCC->PLL1DIVR;
 1513              		.loc 1 839 7 is_stmt 1 view .LVU540
 841:Drivers/STM32H7xx_HAL_Driver/Src/stm32h7xx_hal_rcc.c **** 	 (READ_BIT(temp1_pllckcfg, RCC_PLLCKSELR_PLLSRC) != RCC_OscInitStruct->PLL.PLLSource) ||
 1514              		.loc 1 841 9 is_stmt 0 view .LVU541
 1515 04aa 0128     		cmp	r0, #1
 839:Drivers/STM32H7xx_HAL_Driver/Src/stm32h7xx_hal_rcc.c ****       temp2_pllckcfg = RCC->PLL1DIVR;
 1516              		.loc 1 839 22 view .LVU542
 1517 04ac 9A6A     		ldr	r2, [r3, #40]
 1518              	.LVL135:
 840:Drivers/STM32H7xx_HAL_Driver/Src/stm32h7xx_hal_rcc.c ****       if(((RCC_OscInitStruct->PLL.PLLState) == RCC_PLL_OFF) ||
 1519              		.loc 1 840 7 is_stmt 1 view .LVU543
 840:Drivers/STM32H7xx_HAL_Driver/Src/stm32h7xx_hal_rcc.c ****       if(((RCC_OscInitStruct->PLL.PLLState) == RCC_PLL_OFF) ||
 1520              		.loc 1 840 22 is_stmt 0 view .LVU544
 1521 04ae 1D6B     		ldr	r5, [r3, #48]
 1522              	.LVL136:
 841:Drivers/STM32H7xx_HAL_Driver/Src/stm32h7xx_hal_rcc.c **** 	 (READ_BIT(temp1_pllckcfg, RCC_PLLCKSELR_PLLSRC) != RCC_OscInitStruct->PLL.PLLSource) ||
 1523              		.loc 1 841 7 is_stmt 1 view .LVU545
 841:Drivers/STM32H7xx_HAL_Driver/Src/stm32h7xx_hal_rcc.c **** 	 (READ_BIT(temp1_pllckcfg, RCC_PLLCKSELR_PLLSRC) != RCC_OscInitStruct->PLL.PLLSource) ||
 1524              		.loc 1 841 9 is_stmt 0 view .LVU546
 1525 04b0 3FF468AE 		beq	.L33
 842:Drivers/STM32H7xx_HAL_Driver/Src/stm32h7xx_hal_rcc.c ****          ((READ_BIT(temp1_pllckcfg, RCC_PLLCKSELR_DIVM1) >> RCC_PLLCKSELR_DIVM1_Pos) != RCC_OscInit
 1526              		.loc 1 842 4 discriminator 1 view .LVU547
 1527 04b4 02F00303 		and	r3, r2, #3
 841:Drivers/STM32H7xx_HAL_Driver/Src/stm32h7xx_hal_rcc.c **** 	 (READ_BIT(temp1_pllckcfg, RCC_PLLCKSELR_PLLSRC) != RCC_OscInitStruct->PLL.PLLSource) ||
 1528              		.loc 1 841 61 discriminator 1 view .LVU548
 1529 04b8 A16A     		ldr	r1, [r4, #40]
 1530 04ba 8B42     		cmp	r3, r1
 1531 04bc 7FF4CBAE 		bne	.L110
 843:Drivers/STM32H7xx_HAL_Driver/Src/stm32h7xx_hal_rcc.c ****          (READ_BIT(temp2_pllckcfg, RCC_PLL1DIVR_N1) != (RCC_OscInitStruct->PLL.PLLN - 1U)) ||
 1532              		.loc 1 843 58 view .LVU549
 1533 04c0 C2F30512 		ubfx	r2, r2, #4, #6
 1534              	.LVL137:
 842:Drivers/STM32H7xx_HAL_Driver/Src/stm32h7xx_hal_rcc.c ****          ((READ_BIT(temp1_pllckcfg, RCC_PLLCKSELR_DIVM1) >> RCC_PLLCKSELR_DIVM1_Pos) != RCC_OscInit
 1535              		.loc 1 842 88 view .LVU550
ARM GAS  /tmp/ccLdxC59.s 			page 50


 1536 04c4 E36A     		ldr	r3, [r4, #44]
 1537 04c6 9A42     		cmp	r2, r3
 1538 04c8 7FF4C5AE 		bne	.L110
 844:Drivers/STM32H7xx_HAL_Driver/Src/stm32h7xx_hal_rcc.c ****          ((READ_BIT(temp2_pllckcfg, RCC_PLL1DIVR_P1) >> RCC_PLL1DIVR_P1_Pos) != (RCC_OscInitStruct-
 1539              		.loc 1 844 85 view .LVU551
 1540 04cc 236B     		ldr	r3, [r4, #48]
 844:Drivers/STM32H7xx_HAL_Driver/Src/stm32h7xx_hal_rcc.c ****          ((READ_BIT(temp2_pllckcfg, RCC_PLL1DIVR_P1) >> RCC_PLL1DIVR_P1_Pos) != (RCC_OscInitStruct-
 1541              		.loc 1 844 11 view .LVU552
 1542 04ce C5F30802 		ubfx	r2, r5, #0, #9
 844:Drivers/STM32H7xx_HAL_Driver/Src/stm32h7xx_hal_rcc.c ****          ((READ_BIT(temp2_pllckcfg, RCC_PLL1DIVR_P1) >> RCC_PLL1DIVR_P1_Pos) != (RCC_OscInitStruct-
 1543              		.loc 1 844 85 view .LVU553
 1544 04d2 013B     		subs	r3, r3, #1
 843:Drivers/STM32H7xx_HAL_Driver/Src/stm32h7xx_hal_rcc.c ****          (READ_BIT(temp2_pllckcfg, RCC_PLL1DIVR_N1) != (RCC_OscInitStruct->PLL.PLLN - 1U)) ||
 1545              		.loc 1 843 118 view .LVU554
 1546 04d4 9A42     		cmp	r2, r3
 1547 04d6 7FF4BEAE 		bne	.L110
 845:Drivers/STM32H7xx_HAL_Driver/Src/stm32h7xx_hal_rcc.c ****          ((READ_BIT(temp2_pllckcfg, RCC_PLL1DIVR_Q1) >> RCC_PLL1DIVR_Q1_Pos) != (RCC_OscInitStruct-
 1548              		.loc 1 845 110 view .LVU555
 1549 04da 636B     		ldr	r3, [r4, #52]
 845:Drivers/STM32H7xx_HAL_Driver/Src/stm32h7xx_hal_rcc.c ****          ((READ_BIT(temp2_pllckcfg, RCC_PLL1DIVR_Q1) >> RCC_PLL1DIVR_Q1_Pos) != (RCC_OscInitStruct-
 1550              		.loc 1 845 54 view .LVU556
 1551 04dc C5F34622 		ubfx	r2, r5, #9, #7
 845:Drivers/STM32H7xx_HAL_Driver/Src/stm32h7xx_hal_rcc.c ****          ((READ_BIT(temp2_pllckcfg, RCC_PLL1DIVR_Q1) >> RCC_PLL1DIVR_Q1_Pos) != (RCC_OscInitStruct-
 1552              		.loc 1 845 110 view .LVU557
 1553 04e0 013B     		subs	r3, r3, #1
 844:Drivers/STM32H7xx_HAL_Driver/Src/stm32h7xx_hal_rcc.c ****          ((READ_BIT(temp2_pllckcfg, RCC_PLL1DIVR_P1) >> RCC_PLL1DIVR_P1_Pos) != (RCC_OscInitStruct-
 1554              		.loc 1 844 92 view .LVU558
 1555 04e2 9A42     		cmp	r2, r3
 1556 04e4 7FF4B7AE 		bne	.L110
 846:Drivers/STM32H7xx_HAL_Driver/Src/stm32h7xx_hal_rcc.c ****          ((READ_BIT(temp2_pllckcfg, RCC_PLL1DIVR_R1) >> RCC_PLL1DIVR_R1_Pos) != (RCC_OscInitStruct-
 1557              		.loc 1 846 110 view .LVU559
 1558 04e8 A36B     		ldr	r3, [r4, #56]
 846:Drivers/STM32H7xx_HAL_Driver/Src/stm32h7xx_hal_rcc.c ****          ((READ_BIT(temp2_pllckcfg, RCC_PLL1DIVR_R1) >> RCC_PLL1DIVR_R1_Pos) != (RCC_OscInitStruct-
 1559              		.loc 1 846 54 view .LVU560
 1560 04ea C5F30642 		ubfx	r2, r5, #16, #7
 846:Drivers/STM32H7xx_HAL_Driver/Src/stm32h7xx_hal_rcc.c ****          ((READ_BIT(temp2_pllckcfg, RCC_PLL1DIVR_R1) >> RCC_PLL1DIVR_R1_Pos) != (RCC_OscInitStruct-
 1561              		.loc 1 846 110 view .LVU561
 1562 04ee 013B     		subs	r3, r3, #1
 845:Drivers/STM32H7xx_HAL_Driver/Src/stm32h7xx_hal_rcc.c ****          ((READ_BIT(temp2_pllckcfg, RCC_PLL1DIVR_Q1) >> RCC_PLL1DIVR_Q1_Pos) != (RCC_OscInitStruct-
 1563              		.loc 1 845 117 view .LVU562
 1564 04f0 9A42     		cmp	r2, r3
 1565 04f2 7FF4B0AE 		bne	.L110
 847:Drivers/STM32H7xx_HAL_Driver/Src/stm32h7xx_hal_rcc.c ****       {
 1566              		.loc 1 847 110 view .LVU563
 1567 04f6 E06B     		ldr	r0, [r4, #60]
 847:Drivers/STM32H7xx_HAL_Driver/Src/stm32h7xx_hal_rcc.c ****       {
 1568              		.loc 1 847 54 view .LVU564
 1569 04f8 C5F30665 		ubfx	r5, r5, #24, #7
 1570              	.LVL138:
 847:Drivers/STM32H7xx_HAL_Driver/Src/stm32h7xx_hal_rcc.c ****       {
 1571              		.loc 1 847 110 view .LVU565
 1572 04fc 0138     		subs	r0, r0, #1
 853:Drivers/STM32H7xx_HAL_Driver/Src/stm32h7xx_hal_rcc.c **** }
 1573              		.loc 1 853 10 view .LVU566
 1574 04fe 281A     		subs	r0, r5, r0
 1575 0500 18BF     		it	ne
 1576 0502 0120     		movne	r0, #1
ARM GAS  /tmp/ccLdxC59.s 			page 51


 1577              		.loc 1 854 1 view .LVU567
 1578 0504 F8BD     		pop	{r3, r4, r5, r6, r7, pc}
 1579              	.LVL139:
 1580              	.L161:
 1581              	.LBB15:
 434:Drivers/STM32H7xx_HAL_Driver/Src/stm32h7xx_hal_rcc.c **** 
 1582              		.loc 1 434 7 is_stmt 1 discriminator 7 view .LVU568
 1583 0506 42F48022 		orr	r2, r2, #262144
 1584 050a 1A60     		str	r2, [r3]
 434:Drivers/STM32H7xx_HAL_Driver/Src/stm32h7xx_hal_rcc.c **** 
 1585              		.loc 1 434 7 discriminator 7 view .LVU569
 1586 050c 1A68     		ldr	r2, [r3]
 1587 050e 42F48032 		orr	r2, r2, #65536
 1588 0512 1A60     		str	r2, [r3]
 1589 0514 9CE5     		b	.L39
 1590              	.LVL140:
 1591              	.L167:
 434:Drivers/STM32H7xx_HAL_Driver/Src/stm32h7xx_hal_rcc.c **** 
 1592              		.loc 1 434 7 is_stmt 0 discriminator 7 view .LVU570
 1593              	.LBE15:
 706:Drivers/STM32H7xx_HAL_Driver/Src/stm32h7xx_hal_rcc.c ****     /* Check the LSE State */
 1594              		.loc 1 706 5 is_stmt 1 discriminator 4 view .LVU571
 1595 0516 1C4B     		ldr	r3, .L171
 730:Drivers/STM32H7xx_HAL_Driver/Src/stm32h7xx_hal_rcc.c ****         {
 1596              		.loc 1 730 11 is_stmt 0 discriminator 4 view .LVU572
 1597 0518 41F28837 		movw	r7, #5000
 706:Drivers/STM32H7xx_HAL_Driver/Src/stm32h7xx_hal_rcc.c ****     /* Check the LSE State */
 1598              		.loc 1 706 5 discriminator 4 view .LVU573
 1599 051c 1A6F     		ldr	r2, [r3, #112]
 728:Drivers/STM32H7xx_HAL_Driver/Src/stm32h7xx_hal_rcc.c ****       {
 1600              		.loc 1 728 13 discriminator 4 view .LVU574
 1601 051e 1E46     		mov	r6, r3
 706:Drivers/STM32H7xx_HAL_Driver/Src/stm32h7xx_hal_rcc.c ****     /* Check the LSE State */
 1602              		.loc 1 706 5 discriminator 4 view .LVU575
 1603 0520 22F00102 		bic	r2, r2, #1
 1604 0524 1A67     		str	r2, [r3, #112]
 706:Drivers/STM32H7xx_HAL_Driver/Src/stm32h7xx_hal_rcc.c ****     /* Check the LSE State */
 1605              		.loc 1 706 5 is_stmt 1 discriminator 4 view .LVU576
 1606 0526 1A6F     		ldr	r2, [r3, #112]
 1607 0528 22F00402 		bic	r2, r2, #4
 1608 052c 1A67     		str	r2, [r3, #112]
 706:Drivers/STM32H7xx_HAL_Driver/Src/stm32h7xx_hal_rcc.c ****     /* Check the LSE State */
 1609              		.loc 1 706 5 discriminator 4 view .LVU577
 708:Drivers/STM32H7xx_HAL_Driver/Src/stm32h7xx_hal_rcc.c ****     {
 1610              		.loc 1 708 5 discriminator 4 view .LVU578
 725:Drivers/STM32H7xx_HAL_Driver/Src/stm32h7xx_hal_rcc.c **** 
 1611              		.loc 1 725 7 discriminator 4 view .LVU579
 725:Drivers/STM32H7xx_HAL_Driver/Src/stm32h7xx_hal_rcc.c **** 
 1612              		.loc 1 725 19 is_stmt 0 discriminator 4 view .LVU580
 1613 052e FFF7FEFF 		bl	HAL_GetTick
 1614              	.LVL141:
 1615 0532 0546     		mov	r5, r0
 1616              	.LVL142:
 728:Drivers/STM32H7xx_HAL_Driver/Src/stm32h7xx_hal_rcc.c ****       {
 1617              		.loc 1 728 7 is_stmt 1 discriminator 4 view .LVU581
 728:Drivers/STM32H7xx_HAL_Driver/Src/stm32h7xx_hal_rcc.c ****       {
 1618              		.loc 1 728 12 is_stmt 0 discriminator 4 view .LVU582
ARM GAS  /tmp/ccLdxC59.s 			page 52


 1619 0534 05E0     		b	.L90
 1620              	.LVL143:
 1621              	.L96:
 730:Drivers/STM32H7xx_HAL_Driver/Src/stm32h7xx_hal_rcc.c ****         {
 1622              		.loc 1 730 13 view .LVU583
 1623 0536 FFF7FEFF 		bl	HAL_GetTick
 1624              	.LVL144:
 730:Drivers/STM32H7xx_HAL_Driver/Src/stm32h7xx_hal_rcc.c ****         {
 1625              		.loc 1 730 27 view .LVU584
 1626 053a 401B     		subs	r0, r0, r5
 730:Drivers/STM32H7xx_HAL_Driver/Src/stm32h7xx_hal_rcc.c ****         {
 1627              		.loc 1 730 11 view .LVU585
 1628 053c B842     		cmp	r0, r7
 1629 053e 3FF6EAAE 		bhi	.L46
 1630              	.L90:
 730:Drivers/STM32H7xx_HAL_Driver/Src/stm32h7xx_hal_rcc.c ****         {
 1631              		.loc 1 730 9 is_stmt 1 view .LVU586
 728:Drivers/STM32H7xx_HAL_Driver/Src/stm32h7xx_hal_rcc.c ****       {
 1632              		.loc 1 728 12 view .LVU587
 728:Drivers/STM32H7xx_HAL_Driver/Src/stm32h7xx_hal_rcc.c ****       {
 1633              		.loc 1 728 13 is_stmt 0 view .LVU588
 1634 0542 336F     		ldr	r3, [r6, #112]
 728:Drivers/STM32H7xx_HAL_Driver/Src/stm32h7xx_hal_rcc.c ****       {
 1635              		.loc 1 728 12 view .LVU589
 1636 0544 9807     		lsls	r0, r3, #30
 1637 0546 F6D4     		bmi	.L96
 1638 0548 FDE5     		b	.L95
 1639              	.L67:
 1640              	.LBB16:
 579:Drivers/STM32H7xx_HAL_Driver/Src/stm32h7xx_hal_rcc.c ****       }
 1641              		.loc 1 579 9 is_stmt 1 discriminator 2 view .LVU590
 1642 054a F368     		ldr	r3, [r6, #12]
 1643 054c 226A     		ldr	r2, [r4, #32]
 1644 054e 23F07C53 		bic	r3, r3, #1056964608
 1645 0552 43EA0263 		orr	r3, r3, r2, lsl #24
 1646 0556 F360     		str	r3, [r6, #12]
 1647 0558 2368     		ldr	r3, [r4]
 1648 055a BDE5     		b	.L59
 1649              	.L56:
 579:Drivers/STM32H7xx_HAL_Driver/Src/stm32h7xx_hal_rcc.c ****       }
 1650              		.loc 1 579 9 is_stmt 0 discriminator 2 view .LVU591
 1651              	.LBE16:
 1652              	.LBB17:
 513:Drivers/STM32H7xx_HAL_Driver/Src/stm32h7xx_hal_rcc.c ****       }
 1653              		.loc 1 513 9 is_stmt 1 discriminator 2 view .LVU592
 1654 055c 23F0FE43 		bic	r3, r3, #2130706432
 1655 0560 43EA0263 		orr	r3, r3, r2, lsl #24
 1656 0564 7360     		str	r3, [r6, #4]
 1657 0566 2368     		ldr	r3, [r4]
 1658 0568 B4E5     		b	.L48
 1659              	.L166:
 513:Drivers/STM32H7xx_HAL_Driver/Src/stm32h7xx_hal_rcc.c ****       }
 1660              		.loc 1 513 9 is_stmt 0 discriminator 2 view .LVU593
 1661              	.LBE17:
 706:Drivers/STM32H7xx_HAL_Driver/Src/stm32h7xx_hal_rcc.c ****     /* Check the LSE State */
 1662              		.loc 1 706 5 is_stmt 1 discriminator 1 view .LVU594
 1663 056a 074A     		ldr	r2, .L171
ARM GAS  /tmp/ccLdxC59.s 			page 53


 1664 056c 136F     		ldr	r3, [r2, #112]
 1665 056e 43F00103 		orr	r3, r3, #1
 1666 0572 1367     		str	r3, [r2, #112]
 706:Drivers/STM32H7xx_HAL_Driver/Src/stm32h7xx_hal_rcc.c ****     /* Check the LSE State */
 1667              		.loc 1 706 5 discriminator 1 view .LVU595
 708:Drivers/STM32H7xx_HAL_Driver/Src/stm32h7xx_hal_rcc.c ****     {
 1668              		.loc 1 708 5 discriminator 1 view .LVU596
 1669 0574 A5E6     		b	.L88
 1670              	.L168:
 706:Drivers/STM32H7xx_HAL_Driver/Src/stm32h7xx_hal_rcc.c ****     /* Check the LSE State */
 1671              		.loc 1 706 5 discriminator 7 view .LVU597
 1672 0576 42F00402 		orr	r2, r2, #4
 1673 057a 1A67     		str	r2, [r3, #112]
 706:Drivers/STM32H7xx_HAL_Driver/Src/stm32h7xx_hal_rcc.c ****     /* Check the LSE State */
 1674              		.loc 1 706 5 discriminator 7 view .LVU598
 1675 057c 1A6F     		ldr	r2, [r3, #112]
 1676 057e 42F00102 		orr	r2, r2, #1
 1677 0582 1A67     		str	r2, [r3, #112]
 1678 0584 9DE6     		b	.L88
 1679              	.L172:
 1680 0586 00BF     		.align	2
 1681              	.L171:
 1682 0588 00440258 		.word	1476543488
 1683 058c 0CFCFFFF 		.word	-1012
 1684 0590 0700FFFF 		.word	-65529
 1685              		.cfi_endproc
 1686              	.LFE142:
 1688              		.section	.text.HAL_RCC_MCOConfig,"ax",%progbits
 1689              		.align	1
 1690              		.p2align 2,,3
 1691              		.global	HAL_RCC_MCOConfig
 1692              		.syntax unified
 1693              		.thumb
 1694              		.thumb_func
 1695              		.fpu fpv5-d16
 1697              	HAL_RCC_MCOConfig:
 1698              	.LVL145:
 1699              	.LFB144:
 855:Drivers/STM32H7xx_HAL_Driver/Src/stm32h7xx_hal_rcc.c **** 
 856:Drivers/STM32H7xx_HAL_Driver/Src/stm32h7xx_hal_rcc.c **** /**
 857:Drivers/STM32H7xx_HAL_Driver/Src/stm32h7xx_hal_rcc.c ****   * @brief  Initializes the CPU, AHB and APB buses clocks according to the specified
 858:Drivers/STM32H7xx_HAL_Driver/Src/stm32h7xx_hal_rcc.c ****   *         parameters in the RCC_ClkInitStruct.
 859:Drivers/STM32H7xx_HAL_Driver/Src/stm32h7xx_hal_rcc.c ****   * @param  RCC_ClkInitStruct: pointer to an RCC_OscInitTypeDef structure that
 860:Drivers/STM32H7xx_HAL_Driver/Src/stm32h7xx_hal_rcc.c ****   *         contains the configuration information for the RCC peripheral.
 861:Drivers/STM32H7xx_HAL_Driver/Src/stm32h7xx_hal_rcc.c ****   * @param  FLatency: FLASH Latency, this parameter depend on device selected
 862:Drivers/STM32H7xx_HAL_Driver/Src/stm32h7xx_hal_rcc.c ****   *
 863:Drivers/STM32H7xx_HAL_Driver/Src/stm32h7xx_hal_rcc.c ****   * @note   The SystemCoreClock CMSIS variable is used to store System Core Clock Frequency
 864:Drivers/STM32H7xx_HAL_Driver/Src/stm32h7xx_hal_rcc.c ****   *         and updated by HAL_InitTick() function called within this function
 865:Drivers/STM32H7xx_HAL_Driver/Src/stm32h7xx_hal_rcc.c ****   *
 866:Drivers/STM32H7xx_HAL_Driver/Src/stm32h7xx_hal_rcc.c ****   * @note   The HSI is used (enabled by hardware) as system clock source after
 867:Drivers/STM32H7xx_HAL_Driver/Src/stm32h7xx_hal_rcc.c ****   *         start-up from Reset, wake-up from STOP and STANDBY mode, or in case
 868:Drivers/STM32H7xx_HAL_Driver/Src/stm32h7xx_hal_rcc.c ****   *         of failure of the HSE used directly or indirectly as system clock
 869:Drivers/STM32H7xx_HAL_Driver/Src/stm32h7xx_hal_rcc.c ****   *         (if the Clock Security System CSS is enabled).
 870:Drivers/STM32H7xx_HAL_Driver/Src/stm32h7xx_hal_rcc.c ****   *
 871:Drivers/STM32H7xx_HAL_Driver/Src/stm32h7xx_hal_rcc.c ****   * @note   A switch from one clock source to another occurs only if the target
 872:Drivers/STM32H7xx_HAL_Driver/Src/stm32h7xx_hal_rcc.c ****   *         clock source is ready (clock stable after start-up delay or PLL locked).
 873:Drivers/STM32H7xx_HAL_Driver/Src/stm32h7xx_hal_rcc.c ****   *         If a clock source which is not yet ready is selected, the switch will
ARM GAS  /tmp/ccLdxC59.s 			page 54


 874:Drivers/STM32H7xx_HAL_Driver/Src/stm32h7xx_hal_rcc.c ****   *         occur when the clock source will be ready.
 875:Drivers/STM32H7xx_HAL_Driver/Src/stm32h7xx_hal_rcc.c ****   *         You can use HAL_RCC_GetClockConfig() function to know which clock is
 876:Drivers/STM32H7xx_HAL_Driver/Src/stm32h7xx_hal_rcc.c ****   *         currently used as system clock source.
 877:Drivers/STM32H7xx_HAL_Driver/Src/stm32h7xx_hal_rcc.c ****   * @note   Depending on the device voltage range, the software has to set correctly
 878:Drivers/STM32H7xx_HAL_Driver/Src/stm32h7xx_hal_rcc.c ****   *         D1CPRE[3:0] bits to ensure that  Domain1 core clock not exceed the maximum allowed freq
 879:Drivers/STM32H7xx_HAL_Driver/Src/stm32h7xx_hal_rcc.c ****   *         (for more details refer to section above "Initialization/de-initialization functions")
 880:Drivers/STM32H7xx_HAL_Driver/Src/stm32h7xx_hal_rcc.c ****   * @retval None
 881:Drivers/STM32H7xx_HAL_Driver/Src/stm32h7xx_hal_rcc.c ****   */
 882:Drivers/STM32H7xx_HAL_Driver/Src/stm32h7xx_hal_rcc.c **** HAL_StatusTypeDef HAL_RCC_ClockConfig(RCC_ClkInitTypeDef  *RCC_ClkInitStruct, uint32_t FLatency)
 883:Drivers/STM32H7xx_HAL_Driver/Src/stm32h7xx_hal_rcc.c **** {
 884:Drivers/STM32H7xx_HAL_Driver/Src/stm32h7xx_hal_rcc.c ****   HAL_StatusTypeDef halstatus;
 885:Drivers/STM32H7xx_HAL_Driver/Src/stm32h7xx_hal_rcc.c ****   uint32_t tickstart;
 886:Drivers/STM32H7xx_HAL_Driver/Src/stm32h7xx_hal_rcc.c ****   uint32_t common_system_clock;
 887:Drivers/STM32H7xx_HAL_Driver/Src/stm32h7xx_hal_rcc.c **** 
 888:Drivers/STM32H7xx_HAL_Driver/Src/stm32h7xx_hal_rcc.c ****    /* Check Null pointer */
 889:Drivers/STM32H7xx_HAL_Driver/Src/stm32h7xx_hal_rcc.c ****   if(RCC_ClkInitStruct == NULL)
 890:Drivers/STM32H7xx_HAL_Driver/Src/stm32h7xx_hal_rcc.c ****   {
 891:Drivers/STM32H7xx_HAL_Driver/Src/stm32h7xx_hal_rcc.c ****     return HAL_ERROR;
 892:Drivers/STM32H7xx_HAL_Driver/Src/stm32h7xx_hal_rcc.c ****   }
 893:Drivers/STM32H7xx_HAL_Driver/Src/stm32h7xx_hal_rcc.c **** 
 894:Drivers/STM32H7xx_HAL_Driver/Src/stm32h7xx_hal_rcc.c ****   /* Check the parameters */
 895:Drivers/STM32H7xx_HAL_Driver/Src/stm32h7xx_hal_rcc.c ****   assert_param(IS_RCC_CLOCKTYPE(RCC_ClkInitStruct->ClockType));
 896:Drivers/STM32H7xx_HAL_Driver/Src/stm32h7xx_hal_rcc.c ****   assert_param(IS_FLASH_LATENCY(FLatency));
 897:Drivers/STM32H7xx_HAL_Driver/Src/stm32h7xx_hal_rcc.c **** 
 898:Drivers/STM32H7xx_HAL_Driver/Src/stm32h7xx_hal_rcc.c ****   /* To correctly read data from FLASH memory, the number of wait states (LATENCY)
 899:Drivers/STM32H7xx_HAL_Driver/Src/stm32h7xx_hal_rcc.c ****     must be correctly programmed according to the frequency of the CPU clock
 900:Drivers/STM32H7xx_HAL_Driver/Src/stm32h7xx_hal_rcc.c ****     (HCLK) and the supply voltage of the device. */
 901:Drivers/STM32H7xx_HAL_Driver/Src/stm32h7xx_hal_rcc.c **** 
 902:Drivers/STM32H7xx_HAL_Driver/Src/stm32h7xx_hal_rcc.c ****   /* Increasing the CPU frequency */
 903:Drivers/STM32H7xx_HAL_Driver/Src/stm32h7xx_hal_rcc.c ****   if(FLatency > __HAL_FLASH_GET_LATENCY())
 904:Drivers/STM32H7xx_HAL_Driver/Src/stm32h7xx_hal_rcc.c ****   {
 905:Drivers/STM32H7xx_HAL_Driver/Src/stm32h7xx_hal_rcc.c ****     /* Program the new number of wait states to the LATENCY bits in the FLASH_ACR register */
 906:Drivers/STM32H7xx_HAL_Driver/Src/stm32h7xx_hal_rcc.c ****     __HAL_FLASH_SET_LATENCY(FLatency);
 907:Drivers/STM32H7xx_HAL_Driver/Src/stm32h7xx_hal_rcc.c **** 
 908:Drivers/STM32H7xx_HAL_Driver/Src/stm32h7xx_hal_rcc.c ****     /* Check that the new number of wait states is taken into account to access the Flash
 909:Drivers/STM32H7xx_HAL_Driver/Src/stm32h7xx_hal_rcc.c ****     memory by reading the FLASH_ACR register */
 910:Drivers/STM32H7xx_HAL_Driver/Src/stm32h7xx_hal_rcc.c ****     if(__HAL_FLASH_GET_LATENCY() != FLatency)
 911:Drivers/STM32H7xx_HAL_Driver/Src/stm32h7xx_hal_rcc.c ****     {
 912:Drivers/STM32H7xx_HAL_Driver/Src/stm32h7xx_hal_rcc.c ****       return HAL_ERROR;
 913:Drivers/STM32H7xx_HAL_Driver/Src/stm32h7xx_hal_rcc.c ****     }
 914:Drivers/STM32H7xx_HAL_Driver/Src/stm32h7xx_hal_rcc.c **** 
 915:Drivers/STM32H7xx_HAL_Driver/Src/stm32h7xx_hal_rcc.c ****   }
 916:Drivers/STM32H7xx_HAL_Driver/Src/stm32h7xx_hal_rcc.c **** 
 917:Drivers/STM32H7xx_HAL_Driver/Src/stm32h7xx_hal_rcc.c ****   /* Increasing the BUS frequency divider */
 918:Drivers/STM32H7xx_HAL_Driver/Src/stm32h7xx_hal_rcc.c ****   /*-------------------------- D1PCLK1/CDPCLK1 Configuration ---------------------------*/
 919:Drivers/STM32H7xx_HAL_Driver/Src/stm32h7xx_hal_rcc.c ****   if(((RCC_ClkInitStruct->ClockType) & RCC_CLOCKTYPE_D1PCLK1) == RCC_CLOCKTYPE_D1PCLK1)
 920:Drivers/STM32H7xx_HAL_Driver/Src/stm32h7xx_hal_rcc.c ****   {
 921:Drivers/STM32H7xx_HAL_Driver/Src/stm32h7xx_hal_rcc.c **** #if defined (RCC_D1CFGR_D1PPRE)
 922:Drivers/STM32H7xx_HAL_Driver/Src/stm32h7xx_hal_rcc.c ****     if((RCC_ClkInitStruct->APB3CLKDivider) > (RCC->D1CFGR & RCC_D1CFGR_D1PPRE))
 923:Drivers/STM32H7xx_HAL_Driver/Src/stm32h7xx_hal_rcc.c ****     {
 924:Drivers/STM32H7xx_HAL_Driver/Src/stm32h7xx_hal_rcc.c ****       assert_param(IS_RCC_D1PCLK1(RCC_ClkInitStruct->APB3CLKDivider));
 925:Drivers/STM32H7xx_HAL_Driver/Src/stm32h7xx_hal_rcc.c ****       MODIFY_REG(RCC->D1CFGR, RCC_D1CFGR_D1PPRE, RCC_ClkInitStruct->APB3CLKDivider);
 926:Drivers/STM32H7xx_HAL_Driver/Src/stm32h7xx_hal_rcc.c ****     }
 927:Drivers/STM32H7xx_HAL_Driver/Src/stm32h7xx_hal_rcc.c **** #else
 928:Drivers/STM32H7xx_HAL_Driver/Src/stm32h7xx_hal_rcc.c ****     if((RCC_ClkInitStruct->APB3CLKDivider) > (RCC->CDCFGR1 & RCC_CDCFGR1_CDPPRE))
 929:Drivers/STM32H7xx_HAL_Driver/Src/stm32h7xx_hal_rcc.c ****     {
 930:Drivers/STM32H7xx_HAL_Driver/Src/stm32h7xx_hal_rcc.c ****       assert_param(IS_RCC_CDPCLK1(RCC_ClkInitStruct->APB3CLKDivider));
ARM GAS  /tmp/ccLdxC59.s 			page 55


 931:Drivers/STM32H7xx_HAL_Driver/Src/stm32h7xx_hal_rcc.c ****       MODIFY_REG(RCC->CDCFGR1, RCC_CDCFGR1_CDPPRE, RCC_ClkInitStruct->APB3CLKDivider);
 932:Drivers/STM32H7xx_HAL_Driver/Src/stm32h7xx_hal_rcc.c ****     }
 933:Drivers/STM32H7xx_HAL_Driver/Src/stm32h7xx_hal_rcc.c **** #endif
 934:Drivers/STM32H7xx_HAL_Driver/Src/stm32h7xx_hal_rcc.c ****   }
 935:Drivers/STM32H7xx_HAL_Driver/Src/stm32h7xx_hal_rcc.c **** 
 936:Drivers/STM32H7xx_HAL_Driver/Src/stm32h7xx_hal_rcc.c ****   /*-------------------------- PCLK1 Configuration ---------------------------*/
 937:Drivers/STM32H7xx_HAL_Driver/Src/stm32h7xx_hal_rcc.c ****   if(((RCC_ClkInitStruct->ClockType) & RCC_CLOCKTYPE_PCLK1) == RCC_CLOCKTYPE_PCLK1)
 938:Drivers/STM32H7xx_HAL_Driver/Src/stm32h7xx_hal_rcc.c ****   {
 939:Drivers/STM32H7xx_HAL_Driver/Src/stm32h7xx_hal_rcc.c **** #if defined (RCC_D2CFGR_D2PPRE1)
 940:Drivers/STM32H7xx_HAL_Driver/Src/stm32h7xx_hal_rcc.c ****     if((RCC_ClkInitStruct->APB1CLKDivider) > (RCC->D2CFGR & RCC_D2CFGR_D2PPRE1))
 941:Drivers/STM32H7xx_HAL_Driver/Src/stm32h7xx_hal_rcc.c ****     {
 942:Drivers/STM32H7xx_HAL_Driver/Src/stm32h7xx_hal_rcc.c ****       assert_param(IS_RCC_PCLK1(RCC_ClkInitStruct->APB1CLKDivider));
 943:Drivers/STM32H7xx_HAL_Driver/Src/stm32h7xx_hal_rcc.c ****       MODIFY_REG(RCC->D2CFGR, RCC_D2CFGR_D2PPRE1, (RCC_ClkInitStruct->APB1CLKDivider));
 944:Drivers/STM32H7xx_HAL_Driver/Src/stm32h7xx_hal_rcc.c ****     }
 945:Drivers/STM32H7xx_HAL_Driver/Src/stm32h7xx_hal_rcc.c **** #else
 946:Drivers/STM32H7xx_HAL_Driver/Src/stm32h7xx_hal_rcc.c ****     if((RCC_ClkInitStruct->APB1CLKDivider) > (RCC->CDCFGR2 & RCC_CDCFGR2_CDPPRE1))
 947:Drivers/STM32H7xx_HAL_Driver/Src/stm32h7xx_hal_rcc.c ****     {
 948:Drivers/STM32H7xx_HAL_Driver/Src/stm32h7xx_hal_rcc.c ****       assert_param(IS_RCC_PCLK1(RCC_ClkInitStruct->APB1CLKDivider));
 949:Drivers/STM32H7xx_HAL_Driver/Src/stm32h7xx_hal_rcc.c ****       MODIFY_REG(RCC->CDCFGR2, RCC_CDCFGR2_CDPPRE1, (RCC_ClkInitStruct->APB1CLKDivider));
 950:Drivers/STM32H7xx_HAL_Driver/Src/stm32h7xx_hal_rcc.c ****   }
 951:Drivers/STM32H7xx_HAL_Driver/Src/stm32h7xx_hal_rcc.c **** #endif
 952:Drivers/STM32H7xx_HAL_Driver/Src/stm32h7xx_hal_rcc.c ****     }
 953:Drivers/STM32H7xx_HAL_Driver/Src/stm32h7xx_hal_rcc.c ****   /*-------------------------- PCLK2 Configuration ---------------------------*/
 954:Drivers/STM32H7xx_HAL_Driver/Src/stm32h7xx_hal_rcc.c ****   if(((RCC_ClkInitStruct->ClockType) & RCC_CLOCKTYPE_PCLK2) == RCC_CLOCKTYPE_PCLK2)
 955:Drivers/STM32H7xx_HAL_Driver/Src/stm32h7xx_hal_rcc.c ****   {
 956:Drivers/STM32H7xx_HAL_Driver/Src/stm32h7xx_hal_rcc.c **** #if defined(RCC_D2CFGR_D2PPRE2)
 957:Drivers/STM32H7xx_HAL_Driver/Src/stm32h7xx_hal_rcc.c ****     if((RCC_ClkInitStruct->APB2CLKDivider) > (RCC->D2CFGR & RCC_D2CFGR_D2PPRE2))
 958:Drivers/STM32H7xx_HAL_Driver/Src/stm32h7xx_hal_rcc.c ****     {
 959:Drivers/STM32H7xx_HAL_Driver/Src/stm32h7xx_hal_rcc.c ****       assert_param(IS_RCC_PCLK2(RCC_ClkInitStruct->APB2CLKDivider));
 960:Drivers/STM32H7xx_HAL_Driver/Src/stm32h7xx_hal_rcc.c ****       MODIFY_REG(RCC->D2CFGR, RCC_D2CFGR_D2PPRE2, (RCC_ClkInitStruct->APB2CLKDivider));
 961:Drivers/STM32H7xx_HAL_Driver/Src/stm32h7xx_hal_rcc.c ****     }
 962:Drivers/STM32H7xx_HAL_Driver/Src/stm32h7xx_hal_rcc.c **** #else
 963:Drivers/STM32H7xx_HAL_Driver/Src/stm32h7xx_hal_rcc.c ****      if((RCC_ClkInitStruct->APB2CLKDivider) > (RCC->CDCFGR2 & RCC_CDCFGR2_CDPPRE2))
 964:Drivers/STM32H7xx_HAL_Driver/Src/stm32h7xx_hal_rcc.c ****     {
 965:Drivers/STM32H7xx_HAL_Driver/Src/stm32h7xx_hal_rcc.c ****       assert_param(IS_RCC_PCLK2(RCC_ClkInitStruct->APB2CLKDivider));
 966:Drivers/STM32H7xx_HAL_Driver/Src/stm32h7xx_hal_rcc.c ****       MODIFY_REG(RCC->CDCFGR2, RCC_CDCFGR2_CDPPRE2, (RCC_ClkInitStruct->APB2CLKDivider));
 967:Drivers/STM32H7xx_HAL_Driver/Src/stm32h7xx_hal_rcc.c ****     }
 968:Drivers/STM32H7xx_HAL_Driver/Src/stm32h7xx_hal_rcc.c **** #endif
 969:Drivers/STM32H7xx_HAL_Driver/Src/stm32h7xx_hal_rcc.c ****   }
 970:Drivers/STM32H7xx_HAL_Driver/Src/stm32h7xx_hal_rcc.c **** 
 971:Drivers/STM32H7xx_HAL_Driver/Src/stm32h7xx_hal_rcc.c ****   /*-------------------------- D3PCLK1 Configuration ---------------------------*/
 972:Drivers/STM32H7xx_HAL_Driver/Src/stm32h7xx_hal_rcc.c ****   if(((RCC_ClkInitStruct->ClockType) & RCC_CLOCKTYPE_D3PCLK1) == RCC_CLOCKTYPE_D3PCLK1)
 973:Drivers/STM32H7xx_HAL_Driver/Src/stm32h7xx_hal_rcc.c ****   {
 974:Drivers/STM32H7xx_HAL_Driver/Src/stm32h7xx_hal_rcc.c **** #if defined(RCC_D3CFGR_D3PPRE)
 975:Drivers/STM32H7xx_HAL_Driver/Src/stm32h7xx_hal_rcc.c ****     if((RCC_ClkInitStruct->APB4CLKDivider) > (RCC->D3CFGR & RCC_D3CFGR_D3PPRE))
 976:Drivers/STM32H7xx_HAL_Driver/Src/stm32h7xx_hal_rcc.c ****     {
 977:Drivers/STM32H7xx_HAL_Driver/Src/stm32h7xx_hal_rcc.c ****       assert_param(IS_RCC_D3PCLK1(RCC_ClkInitStruct->APB4CLKDivider));
 978:Drivers/STM32H7xx_HAL_Driver/Src/stm32h7xx_hal_rcc.c ****       MODIFY_REG(RCC->D3CFGR, RCC_D3CFGR_D3PPRE, (RCC_ClkInitStruct->APB4CLKDivider) );
 979:Drivers/STM32H7xx_HAL_Driver/Src/stm32h7xx_hal_rcc.c ****     }
 980:Drivers/STM32H7xx_HAL_Driver/Src/stm32h7xx_hal_rcc.c **** #else
 981:Drivers/STM32H7xx_HAL_Driver/Src/stm32h7xx_hal_rcc.c ****     if((RCC_ClkInitStruct->APB4CLKDivider) > (RCC->SRDCFGR & RCC_SRDCFGR_SRDPPRE))
 982:Drivers/STM32H7xx_HAL_Driver/Src/stm32h7xx_hal_rcc.c ****     {
 983:Drivers/STM32H7xx_HAL_Driver/Src/stm32h7xx_hal_rcc.c ****       assert_param(IS_RCC_D3PCLK1(RCC_ClkInitStruct->APB4CLKDivider));
 984:Drivers/STM32H7xx_HAL_Driver/Src/stm32h7xx_hal_rcc.c ****       MODIFY_REG(RCC->SRDCFGR, RCC_SRDCFGR_SRDPPRE, (RCC_ClkInitStruct->APB4CLKDivider) );
 985:Drivers/STM32H7xx_HAL_Driver/Src/stm32h7xx_hal_rcc.c ****     }
 986:Drivers/STM32H7xx_HAL_Driver/Src/stm32h7xx_hal_rcc.c **** #endif
 987:Drivers/STM32H7xx_HAL_Driver/Src/stm32h7xx_hal_rcc.c ****   }
ARM GAS  /tmp/ccLdxC59.s 			page 56


 988:Drivers/STM32H7xx_HAL_Driver/Src/stm32h7xx_hal_rcc.c **** 
 989:Drivers/STM32H7xx_HAL_Driver/Src/stm32h7xx_hal_rcc.c ****    /*-------------------------- HCLK Configuration --------------------------*/
 990:Drivers/STM32H7xx_HAL_Driver/Src/stm32h7xx_hal_rcc.c ****   if(((RCC_ClkInitStruct->ClockType) & RCC_CLOCKTYPE_HCLK) == RCC_CLOCKTYPE_HCLK)
 991:Drivers/STM32H7xx_HAL_Driver/Src/stm32h7xx_hal_rcc.c ****   {
 992:Drivers/STM32H7xx_HAL_Driver/Src/stm32h7xx_hal_rcc.c **** #if defined (RCC_D1CFGR_HPRE)
 993:Drivers/STM32H7xx_HAL_Driver/Src/stm32h7xx_hal_rcc.c ****     if((RCC_ClkInitStruct->AHBCLKDivider) > (RCC->D1CFGR & RCC_D1CFGR_HPRE))
 994:Drivers/STM32H7xx_HAL_Driver/Src/stm32h7xx_hal_rcc.c ****     {
 995:Drivers/STM32H7xx_HAL_Driver/Src/stm32h7xx_hal_rcc.c ****       /* Set the new HCLK clock divider */
 996:Drivers/STM32H7xx_HAL_Driver/Src/stm32h7xx_hal_rcc.c ****       assert_param(IS_RCC_HCLK(RCC_ClkInitStruct->AHBCLKDivider));
 997:Drivers/STM32H7xx_HAL_Driver/Src/stm32h7xx_hal_rcc.c ****       MODIFY_REG(RCC->D1CFGR, RCC_D1CFGR_HPRE, RCC_ClkInitStruct->AHBCLKDivider);
 998:Drivers/STM32H7xx_HAL_Driver/Src/stm32h7xx_hal_rcc.c ****     }
 999:Drivers/STM32H7xx_HAL_Driver/Src/stm32h7xx_hal_rcc.c **** #else
1000:Drivers/STM32H7xx_HAL_Driver/Src/stm32h7xx_hal_rcc.c ****         if((RCC_ClkInitStruct->AHBCLKDivider) > (RCC->CDCFGR1 & RCC_CDCFGR1_HPRE))
1001:Drivers/STM32H7xx_HAL_Driver/Src/stm32h7xx_hal_rcc.c ****     {
1002:Drivers/STM32H7xx_HAL_Driver/Src/stm32h7xx_hal_rcc.c ****       /* Set the new HCLK clock divider */
1003:Drivers/STM32H7xx_HAL_Driver/Src/stm32h7xx_hal_rcc.c ****       assert_param(IS_RCC_HCLK(RCC_ClkInitStruct->AHBCLKDivider));
1004:Drivers/STM32H7xx_HAL_Driver/Src/stm32h7xx_hal_rcc.c ****       MODIFY_REG(RCC->CDCFGR1, RCC_CDCFGR1_HPRE, RCC_ClkInitStruct->AHBCLKDivider);
1005:Drivers/STM32H7xx_HAL_Driver/Src/stm32h7xx_hal_rcc.c ****     }
1006:Drivers/STM32H7xx_HAL_Driver/Src/stm32h7xx_hal_rcc.c **** #endif
1007:Drivers/STM32H7xx_HAL_Driver/Src/stm32h7xx_hal_rcc.c ****   }
1008:Drivers/STM32H7xx_HAL_Driver/Src/stm32h7xx_hal_rcc.c **** 
1009:Drivers/STM32H7xx_HAL_Driver/Src/stm32h7xx_hal_rcc.c ****     /*------------------------- SYSCLK Configuration -------------------------*/
1010:Drivers/STM32H7xx_HAL_Driver/Src/stm32h7xx_hal_rcc.c ****     if(((RCC_ClkInitStruct->ClockType) & RCC_CLOCKTYPE_SYSCLK) == RCC_CLOCKTYPE_SYSCLK)
1011:Drivers/STM32H7xx_HAL_Driver/Src/stm32h7xx_hal_rcc.c ****     {
1012:Drivers/STM32H7xx_HAL_Driver/Src/stm32h7xx_hal_rcc.c ****       assert_param(IS_RCC_SYSCLK(RCC_ClkInitStruct->SYSCLKDivider));
1013:Drivers/STM32H7xx_HAL_Driver/Src/stm32h7xx_hal_rcc.c ****       assert_param(IS_RCC_SYSCLKSOURCE(RCC_ClkInitStruct->SYSCLKSource));
1014:Drivers/STM32H7xx_HAL_Driver/Src/stm32h7xx_hal_rcc.c **** #if defined(RCC_D1CFGR_D1CPRE)
1015:Drivers/STM32H7xx_HAL_Driver/Src/stm32h7xx_hal_rcc.c ****       MODIFY_REG(RCC->D1CFGR, RCC_D1CFGR_D1CPRE, RCC_ClkInitStruct->SYSCLKDivider);
1016:Drivers/STM32H7xx_HAL_Driver/Src/stm32h7xx_hal_rcc.c **** #else
1017:Drivers/STM32H7xx_HAL_Driver/Src/stm32h7xx_hal_rcc.c ****       MODIFY_REG(RCC->CDCFGR1, RCC_CDCFGR1_CDCPRE, RCC_ClkInitStruct->SYSCLKDivider);
1018:Drivers/STM32H7xx_HAL_Driver/Src/stm32h7xx_hal_rcc.c **** #endif
1019:Drivers/STM32H7xx_HAL_Driver/Src/stm32h7xx_hal_rcc.c ****       /* HSE is selected as System Clock Source */
1020:Drivers/STM32H7xx_HAL_Driver/Src/stm32h7xx_hal_rcc.c ****       if(RCC_ClkInitStruct->SYSCLKSource == RCC_SYSCLKSOURCE_HSE)
1021:Drivers/STM32H7xx_HAL_Driver/Src/stm32h7xx_hal_rcc.c ****       {
1022:Drivers/STM32H7xx_HAL_Driver/Src/stm32h7xx_hal_rcc.c ****         /* Check the HSE ready flag */
1023:Drivers/STM32H7xx_HAL_Driver/Src/stm32h7xx_hal_rcc.c ****         if(__HAL_RCC_GET_FLAG(RCC_FLAG_HSERDY) == 0U)
1024:Drivers/STM32H7xx_HAL_Driver/Src/stm32h7xx_hal_rcc.c ****         {
1025:Drivers/STM32H7xx_HAL_Driver/Src/stm32h7xx_hal_rcc.c ****           return HAL_ERROR;
1026:Drivers/STM32H7xx_HAL_Driver/Src/stm32h7xx_hal_rcc.c ****         }
1027:Drivers/STM32H7xx_HAL_Driver/Src/stm32h7xx_hal_rcc.c ****       }
1028:Drivers/STM32H7xx_HAL_Driver/Src/stm32h7xx_hal_rcc.c ****       /* PLL is selected as System Clock Source */
1029:Drivers/STM32H7xx_HAL_Driver/Src/stm32h7xx_hal_rcc.c ****       else if(RCC_ClkInitStruct->SYSCLKSource == RCC_SYSCLKSOURCE_PLLCLK)
1030:Drivers/STM32H7xx_HAL_Driver/Src/stm32h7xx_hal_rcc.c ****       {
1031:Drivers/STM32H7xx_HAL_Driver/Src/stm32h7xx_hal_rcc.c ****         /* Check the PLL ready flag */
1032:Drivers/STM32H7xx_HAL_Driver/Src/stm32h7xx_hal_rcc.c ****         if(__HAL_RCC_GET_FLAG(RCC_FLAG_PLLRDY) == 0U)
1033:Drivers/STM32H7xx_HAL_Driver/Src/stm32h7xx_hal_rcc.c ****         {
1034:Drivers/STM32H7xx_HAL_Driver/Src/stm32h7xx_hal_rcc.c ****           return HAL_ERROR;
1035:Drivers/STM32H7xx_HAL_Driver/Src/stm32h7xx_hal_rcc.c ****         }
1036:Drivers/STM32H7xx_HAL_Driver/Src/stm32h7xx_hal_rcc.c ****       }
1037:Drivers/STM32H7xx_HAL_Driver/Src/stm32h7xx_hal_rcc.c ****       /* CSI is selected as System Clock Source */
1038:Drivers/STM32H7xx_HAL_Driver/Src/stm32h7xx_hal_rcc.c ****       else if(RCC_ClkInitStruct->SYSCLKSource == RCC_SYSCLKSOURCE_CSI)
1039:Drivers/STM32H7xx_HAL_Driver/Src/stm32h7xx_hal_rcc.c ****       {
1040:Drivers/STM32H7xx_HAL_Driver/Src/stm32h7xx_hal_rcc.c ****         /* Check the PLL ready flag */
1041:Drivers/STM32H7xx_HAL_Driver/Src/stm32h7xx_hal_rcc.c ****         if(__HAL_RCC_GET_FLAG(RCC_FLAG_CSIRDY) == 0U)
1042:Drivers/STM32H7xx_HAL_Driver/Src/stm32h7xx_hal_rcc.c ****         {
1043:Drivers/STM32H7xx_HAL_Driver/Src/stm32h7xx_hal_rcc.c ****           return HAL_ERROR;
1044:Drivers/STM32H7xx_HAL_Driver/Src/stm32h7xx_hal_rcc.c ****         }
ARM GAS  /tmp/ccLdxC59.s 			page 57


1045:Drivers/STM32H7xx_HAL_Driver/Src/stm32h7xx_hal_rcc.c ****       }
1046:Drivers/STM32H7xx_HAL_Driver/Src/stm32h7xx_hal_rcc.c ****       /* HSI is selected as System Clock Source */
1047:Drivers/STM32H7xx_HAL_Driver/Src/stm32h7xx_hal_rcc.c ****       else
1048:Drivers/STM32H7xx_HAL_Driver/Src/stm32h7xx_hal_rcc.c ****       {
1049:Drivers/STM32H7xx_HAL_Driver/Src/stm32h7xx_hal_rcc.c ****         /* Check the HSI ready flag */
1050:Drivers/STM32H7xx_HAL_Driver/Src/stm32h7xx_hal_rcc.c ****         if(__HAL_RCC_GET_FLAG(RCC_FLAG_HSIRDY) == 0U)
1051:Drivers/STM32H7xx_HAL_Driver/Src/stm32h7xx_hal_rcc.c ****         {
1052:Drivers/STM32H7xx_HAL_Driver/Src/stm32h7xx_hal_rcc.c ****           return HAL_ERROR;
1053:Drivers/STM32H7xx_HAL_Driver/Src/stm32h7xx_hal_rcc.c ****         }
1054:Drivers/STM32H7xx_HAL_Driver/Src/stm32h7xx_hal_rcc.c ****       }
1055:Drivers/STM32H7xx_HAL_Driver/Src/stm32h7xx_hal_rcc.c ****       MODIFY_REG(RCC->CFGR, RCC_CFGR_SW, RCC_ClkInitStruct->SYSCLKSource);
1056:Drivers/STM32H7xx_HAL_Driver/Src/stm32h7xx_hal_rcc.c **** 
1057:Drivers/STM32H7xx_HAL_Driver/Src/stm32h7xx_hal_rcc.c ****       /* Get Start Tick*/
1058:Drivers/STM32H7xx_HAL_Driver/Src/stm32h7xx_hal_rcc.c ****       tickstart = HAL_GetTick();
1059:Drivers/STM32H7xx_HAL_Driver/Src/stm32h7xx_hal_rcc.c **** 
1060:Drivers/STM32H7xx_HAL_Driver/Src/stm32h7xx_hal_rcc.c ****         while (__HAL_RCC_GET_SYSCLK_SOURCE() !=  (RCC_ClkInitStruct->SYSCLKSource << RCC_CFGR_SWS_P
1061:Drivers/STM32H7xx_HAL_Driver/Src/stm32h7xx_hal_rcc.c ****         {
1062:Drivers/STM32H7xx_HAL_Driver/Src/stm32h7xx_hal_rcc.c ****           if((HAL_GetTick() - tickstart ) > CLOCKSWITCH_TIMEOUT_VALUE)
1063:Drivers/STM32H7xx_HAL_Driver/Src/stm32h7xx_hal_rcc.c ****           {
1064:Drivers/STM32H7xx_HAL_Driver/Src/stm32h7xx_hal_rcc.c ****             return HAL_TIMEOUT;
1065:Drivers/STM32H7xx_HAL_Driver/Src/stm32h7xx_hal_rcc.c ****           }
1066:Drivers/STM32H7xx_HAL_Driver/Src/stm32h7xx_hal_rcc.c ****         }
1067:Drivers/STM32H7xx_HAL_Driver/Src/stm32h7xx_hal_rcc.c **** 
1068:Drivers/STM32H7xx_HAL_Driver/Src/stm32h7xx_hal_rcc.c ****     }
1069:Drivers/STM32H7xx_HAL_Driver/Src/stm32h7xx_hal_rcc.c **** 
1070:Drivers/STM32H7xx_HAL_Driver/Src/stm32h7xx_hal_rcc.c ****     /* Decreasing the BUS frequency divider */
1071:Drivers/STM32H7xx_HAL_Driver/Src/stm32h7xx_hal_rcc.c ****    /*-------------------------- HCLK Configuration --------------------------*/
1072:Drivers/STM32H7xx_HAL_Driver/Src/stm32h7xx_hal_rcc.c ****   if(((RCC_ClkInitStruct->ClockType) & RCC_CLOCKTYPE_HCLK) == RCC_CLOCKTYPE_HCLK)
1073:Drivers/STM32H7xx_HAL_Driver/Src/stm32h7xx_hal_rcc.c ****   {
1074:Drivers/STM32H7xx_HAL_Driver/Src/stm32h7xx_hal_rcc.c **** #if defined(RCC_D1CFGR_HPRE)
1075:Drivers/STM32H7xx_HAL_Driver/Src/stm32h7xx_hal_rcc.c ****     if((RCC_ClkInitStruct->AHBCLKDivider) < (RCC->D1CFGR & RCC_D1CFGR_HPRE))
1076:Drivers/STM32H7xx_HAL_Driver/Src/stm32h7xx_hal_rcc.c ****     {
1077:Drivers/STM32H7xx_HAL_Driver/Src/stm32h7xx_hal_rcc.c ****       /* Set the new HCLK clock divider */
1078:Drivers/STM32H7xx_HAL_Driver/Src/stm32h7xx_hal_rcc.c ****       assert_param(IS_RCC_HCLK(RCC_ClkInitStruct->AHBCLKDivider));
1079:Drivers/STM32H7xx_HAL_Driver/Src/stm32h7xx_hal_rcc.c ****       MODIFY_REG(RCC->D1CFGR, RCC_D1CFGR_HPRE, RCC_ClkInitStruct->AHBCLKDivider);
1080:Drivers/STM32H7xx_HAL_Driver/Src/stm32h7xx_hal_rcc.c ****     }
1081:Drivers/STM32H7xx_HAL_Driver/Src/stm32h7xx_hal_rcc.c **** #else
1082:Drivers/STM32H7xx_HAL_Driver/Src/stm32h7xx_hal_rcc.c ****     if((RCC_ClkInitStruct->AHBCLKDivider) < (RCC->CDCFGR1 & RCC_CDCFGR1_HPRE))
1083:Drivers/STM32H7xx_HAL_Driver/Src/stm32h7xx_hal_rcc.c ****     {
1084:Drivers/STM32H7xx_HAL_Driver/Src/stm32h7xx_hal_rcc.c ****       /* Set the new HCLK clock divider */
1085:Drivers/STM32H7xx_HAL_Driver/Src/stm32h7xx_hal_rcc.c ****       assert_param(IS_RCC_HCLK(RCC_ClkInitStruct->AHBCLKDivider));
1086:Drivers/STM32H7xx_HAL_Driver/Src/stm32h7xx_hal_rcc.c ****       MODIFY_REG(RCC->CDCFGR1, RCC_CDCFGR1_HPRE, RCC_ClkInitStruct->AHBCLKDivider);
1087:Drivers/STM32H7xx_HAL_Driver/Src/stm32h7xx_hal_rcc.c ****     }
1088:Drivers/STM32H7xx_HAL_Driver/Src/stm32h7xx_hal_rcc.c **** #endif
1089:Drivers/STM32H7xx_HAL_Driver/Src/stm32h7xx_hal_rcc.c ****   }
1090:Drivers/STM32H7xx_HAL_Driver/Src/stm32h7xx_hal_rcc.c **** 
1091:Drivers/STM32H7xx_HAL_Driver/Src/stm32h7xx_hal_rcc.c ****   /* Decreasing the number of wait states because of lower CPU frequency */
1092:Drivers/STM32H7xx_HAL_Driver/Src/stm32h7xx_hal_rcc.c ****   if(FLatency < __HAL_FLASH_GET_LATENCY())
1093:Drivers/STM32H7xx_HAL_Driver/Src/stm32h7xx_hal_rcc.c ****   {
1094:Drivers/STM32H7xx_HAL_Driver/Src/stm32h7xx_hal_rcc.c ****     /* Program the new number of wait states to the LATENCY bits in the FLASH_ACR register */
1095:Drivers/STM32H7xx_HAL_Driver/Src/stm32h7xx_hal_rcc.c ****     __HAL_FLASH_SET_LATENCY(FLatency);
1096:Drivers/STM32H7xx_HAL_Driver/Src/stm32h7xx_hal_rcc.c **** 
1097:Drivers/STM32H7xx_HAL_Driver/Src/stm32h7xx_hal_rcc.c ****     /* Check that the new number of wait states is taken into account to access the Flash
1098:Drivers/STM32H7xx_HAL_Driver/Src/stm32h7xx_hal_rcc.c ****     memory by reading the FLASH_ACR register */
1099:Drivers/STM32H7xx_HAL_Driver/Src/stm32h7xx_hal_rcc.c ****     if(__HAL_FLASH_GET_LATENCY() != FLatency)
1100:Drivers/STM32H7xx_HAL_Driver/Src/stm32h7xx_hal_rcc.c ****     {
1101:Drivers/STM32H7xx_HAL_Driver/Src/stm32h7xx_hal_rcc.c ****       return HAL_ERROR;
ARM GAS  /tmp/ccLdxC59.s 			page 58


1102:Drivers/STM32H7xx_HAL_Driver/Src/stm32h7xx_hal_rcc.c ****     }
1103:Drivers/STM32H7xx_HAL_Driver/Src/stm32h7xx_hal_rcc.c ****  }
1104:Drivers/STM32H7xx_HAL_Driver/Src/stm32h7xx_hal_rcc.c **** 
1105:Drivers/STM32H7xx_HAL_Driver/Src/stm32h7xx_hal_rcc.c ****   /*-------------------------- D1PCLK1/CDPCLK Configuration ---------------------------*/
1106:Drivers/STM32H7xx_HAL_Driver/Src/stm32h7xx_hal_rcc.c ****  if(((RCC_ClkInitStruct->ClockType) & RCC_CLOCKTYPE_D1PCLK1) == RCC_CLOCKTYPE_D1PCLK1)
1107:Drivers/STM32H7xx_HAL_Driver/Src/stm32h7xx_hal_rcc.c ****  {
1108:Drivers/STM32H7xx_HAL_Driver/Src/stm32h7xx_hal_rcc.c **** #if defined(RCC_D1CFGR_D1PPRE)
1109:Drivers/STM32H7xx_HAL_Driver/Src/stm32h7xx_hal_rcc.c ****    if((RCC_ClkInitStruct->APB3CLKDivider) < (RCC->D1CFGR & RCC_D1CFGR_D1PPRE))
1110:Drivers/STM32H7xx_HAL_Driver/Src/stm32h7xx_hal_rcc.c ****    {
1111:Drivers/STM32H7xx_HAL_Driver/Src/stm32h7xx_hal_rcc.c ****      assert_param(IS_RCC_D1PCLK1(RCC_ClkInitStruct->APB3CLKDivider));
1112:Drivers/STM32H7xx_HAL_Driver/Src/stm32h7xx_hal_rcc.c ****      MODIFY_REG(RCC->D1CFGR, RCC_D1CFGR_D1PPRE, RCC_ClkInitStruct->APB3CLKDivider);
1113:Drivers/STM32H7xx_HAL_Driver/Src/stm32h7xx_hal_rcc.c ****    }
1114:Drivers/STM32H7xx_HAL_Driver/Src/stm32h7xx_hal_rcc.c **** #else
1115:Drivers/STM32H7xx_HAL_Driver/Src/stm32h7xx_hal_rcc.c ****    if((RCC_ClkInitStruct->APB3CLKDivider) < (RCC->CDCFGR1 & RCC_CDCFGR1_CDPPRE))
1116:Drivers/STM32H7xx_HAL_Driver/Src/stm32h7xx_hal_rcc.c ****    {
1117:Drivers/STM32H7xx_HAL_Driver/Src/stm32h7xx_hal_rcc.c ****      assert_param(IS_RCC_CDPCLK1(RCC_ClkInitStruct->APB3CLKDivider));
1118:Drivers/STM32H7xx_HAL_Driver/Src/stm32h7xx_hal_rcc.c ****      MODIFY_REG(RCC->CDCFGR1, RCC_CDCFGR1_CDPPRE, RCC_ClkInitStruct->APB3CLKDivider);
1119:Drivers/STM32H7xx_HAL_Driver/Src/stm32h7xx_hal_rcc.c ****    }
1120:Drivers/STM32H7xx_HAL_Driver/Src/stm32h7xx_hal_rcc.c **** #endif
1121:Drivers/STM32H7xx_HAL_Driver/Src/stm32h7xx_hal_rcc.c ****  }
1122:Drivers/STM32H7xx_HAL_Driver/Src/stm32h7xx_hal_rcc.c **** 
1123:Drivers/STM32H7xx_HAL_Driver/Src/stm32h7xx_hal_rcc.c ****   /*-------------------------- PCLK1 Configuration ---------------------------*/
1124:Drivers/STM32H7xx_HAL_Driver/Src/stm32h7xx_hal_rcc.c ****  if(((RCC_ClkInitStruct->ClockType) & RCC_CLOCKTYPE_PCLK1) == RCC_CLOCKTYPE_PCLK1)
1125:Drivers/STM32H7xx_HAL_Driver/Src/stm32h7xx_hal_rcc.c ****  {
1126:Drivers/STM32H7xx_HAL_Driver/Src/stm32h7xx_hal_rcc.c **** #if defined(RCC_D2CFGR_D2PPRE1)
1127:Drivers/STM32H7xx_HAL_Driver/Src/stm32h7xx_hal_rcc.c ****    if((RCC_ClkInitStruct->APB1CLKDivider) < (RCC->D2CFGR & RCC_D2CFGR_D2PPRE1))
1128:Drivers/STM32H7xx_HAL_Driver/Src/stm32h7xx_hal_rcc.c ****    {
1129:Drivers/STM32H7xx_HAL_Driver/Src/stm32h7xx_hal_rcc.c ****      assert_param(IS_RCC_PCLK1(RCC_ClkInitStruct->APB1CLKDivider));
1130:Drivers/STM32H7xx_HAL_Driver/Src/stm32h7xx_hal_rcc.c ****      MODIFY_REG(RCC->D2CFGR, RCC_D2CFGR_D2PPRE1, (RCC_ClkInitStruct->APB1CLKDivider));
1131:Drivers/STM32H7xx_HAL_Driver/Src/stm32h7xx_hal_rcc.c ****    }
1132:Drivers/STM32H7xx_HAL_Driver/Src/stm32h7xx_hal_rcc.c **** #else
1133:Drivers/STM32H7xx_HAL_Driver/Src/stm32h7xx_hal_rcc.c ****    if((RCC_ClkInitStruct->APB1CLKDivider) < (RCC->CDCFGR2 & RCC_CDCFGR2_CDPPRE1))
1134:Drivers/STM32H7xx_HAL_Driver/Src/stm32h7xx_hal_rcc.c ****    {
1135:Drivers/STM32H7xx_HAL_Driver/Src/stm32h7xx_hal_rcc.c ****      assert_param(IS_RCC_PCLK1(RCC_ClkInitStruct->APB1CLKDivider));
1136:Drivers/STM32H7xx_HAL_Driver/Src/stm32h7xx_hal_rcc.c ****      MODIFY_REG(RCC->CDCFGR2, RCC_CDCFGR2_CDPPRE1, (RCC_ClkInitStruct->APB1CLKDivider));
1137:Drivers/STM32H7xx_HAL_Driver/Src/stm32h7xx_hal_rcc.c ****    }
1138:Drivers/STM32H7xx_HAL_Driver/Src/stm32h7xx_hal_rcc.c **** #endif
1139:Drivers/STM32H7xx_HAL_Driver/Src/stm32h7xx_hal_rcc.c ****  }
1140:Drivers/STM32H7xx_HAL_Driver/Src/stm32h7xx_hal_rcc.c **** 
1141:Drivers/STM32H7xx_HAL_Driver/Src/stm32h7xx_hal_rcc.c ****   /*-------------------------- PCLK2 Configuration ---------------------------*/
1142:Drivers/STM32H7xx_HAL_Driver/Src/stm32h7xx_hal_rcc.c ****  if(((RCC_ClkInitStruct->ClockType) & RCC_CLOCKTYPE_PCLK2) == RCC_CLOCKTYPE_PCLK2)
1143:Drivers/STM32H7xx_HAL_Driver/Src/stm32h7xx_hal_rcc.c ****  {
1144:Drivers/STM32H7xx_HAL_Driver/Src/stm32h7xx_hal_rcc.c **** #if defined (RCC_D2CFGR_D2PPRE2)
1145:Drivers/STM32H7xx_HAL_Driver/Src/stm32h7xx_hal_rcc.c ****    if((RCC_ClkInitStruct->APB2CLKDivider) < (RCC->D2CFGR & RCC_D2CFGR_D2PPRE2))
1146:Drivers/STM32H7xx_HAL_Driver/Src/stm32h7xx_hal_rcc.c ****    {
1147:Drivers/STM32H7xx_HAL_Driver/Src/stm32h7xx_hal_rcc.c ****      assert_param(IS_RCC_PCLK2(RCC_ClkInitStruct->APB2CLKDivider));
1148:Drivers/STM32H7xx_HAL_Driver/Src/stm32h7xx_hal_rcc.c ****      MODIFY_REG(RCC->D2CFGR, RCC_D2CFGR_D2PPRE2, (RCC_ClkInitStruct->APB2CLKDivider));
1149:Drivers/STM32H7xx_HAL_Driver/Src/stm32h7xx_hal_rcc.c ****    }
1150:Drivers/STM32H7xx_HAL_Driver/Src/stm32h7xx_hal_rcc.c **** #else
1151:Drivers/STM32H7xx_HAL_Driver/Src/stm32h7xx_hal_rcc.c ****    if((RCC_ClkInitStruct->APB2CLKDivider) < (RCC->CDCFGR2 & RCC_CDCFGR2_CDPPRE2))
1152:Drivers/STM32H7xx_HAL_Driver/Src/stm32h7xx_hal_rcc.c ****    {
1153:Drivers/STM32H7xx_HAL_Driver/Src/stm32h7xx_hal_rcc.c ****      assert_param(IS_RCC_PCLK2(RCC_ClkInitStruct->APB2CLKDivider));
1154:Drivers/STM32H7xx_HAL_Driver/Src/stm32h7xx_hal_rcc.c ****      MODIFY_REG(RCC->CDCFGR2, RCC_CDCFGR2_CDPPRE2, (RCC_ClkInitStruct->APB2CLKDivider));
1155:Drivers/STM32H7xx_HAL_Driver/Src/stm32h7xx_hal_rcc.c ****    }
1156:Drivers/STM32H7xx_HAL_Driver/Src/stm32h7xx_hal_rcc.c **** #endif
1157:Drivers/STM32H7xx_HAL_Driver/Src/stm32h7xx_hal_rcc.c ****  }
1158:Drivers/STM32H7xx_HAL_Driver/Src/stm32h7xx_hal_rcc.c **** 
ARM GAS  /tmp/ccLdxC59.s 			page 59


1159:Drivers/STM32H7xx_HAL_Driver/Src/stm32h7xx_hal_rcc.c ****   /*-------------------------- D3PCLK1/SRDPCLK1 Configuration ---------------------------*/
1160:Drivers/STM32H7xx_HAL_Driver/Src/stm32h7xx_hal_rcc.c ****  if(((RCC_ClkInitStruct->ClockType) & RCC_CLOCKTYPE_D3PCLK1) == RCC_CLOCKTYPE_D3PCLK1)
1161:Drivers/STM32H7xx_HAL_Driver/Src/stm32h7xx_hal_rcc.c ****  {
1162:Drivers/STM32H7xx_HAL_Driver/Src/stm32h7xx_hal_rcc.c **** #if defined(RCC_D3CFGR_D3PPRE)
1163:Drivers/STM32H7xx_HAL_Driver/Src/stm32h7xx_hal_rcc.c ****    if((RCC_ClkInitStruct->APB4CLKDivider) < (RCC->D3CFGR & RCC_D3CFGR_D3PPRE))
1164:Drivers/STM32H7xx_HAL_Driver/Src/stm32h7xx_hal_rcc.c ****    {
1165:Drivers/STM32H7xx_HAL_Driver/Src/stm32h7xx_hal_rcc.c ****      assert_param(IS_RCC_D3PCLK1(RCC_ClkInitStruct->APB4CLKDivider));
1166:Drivers/STM32H7xx_HAL_Driver/Src/stm32h7xx_hal_rcc.c ****      MODIFY_REG(RCC->D3CFGR, RCC_D3CFGR_D3PPRE, (RCC_ClkInitStruct->APB4CLKDivider) );
1167:Drivers/STM32H7xx_HAL_Driver/Src/stm32h7xx_hal_rcc.c ****    }
1168:Drivers/STM32H7xx_HAL_Driver/Src/stm32h7xx_hal_rcc.c **** #else
1169:Drivers/STM32H7xx_HAL_Driver/Src/stm32h7xx_hal_rcc.c ****    if((RCC_ClkInitStruct->APB4CLKDivider) < (RCC->SRDCFGR & RCC_SRDCFGR_SRDPPRE))
1170:Drivers/STM32H7xx_HAL_Driver/Src/stm32h7xx_hal_rcc.c ****    {
1171:Drivers/STM32H7xx_HAL_Driver/Src/stm32h7xx_hal_rcc.c ****      assert_param(IS_RCC_SRDPCLK1(RCC_ClkInitStruct->APB4CLKDivider));
1172:Drivers/STM32H7xx_HAL_Driver/Src/stm32h7xx_hal_rcc.c ****      MODIFY_REG(RCC->SRDCFGR, RCC_SRDCFGR_SRDPPRE, (RCC_ClkInitStruct->APB4CLKDivider) );
1173:Drivers/STM32H7xx_HAL_Driver/Src/stm32h7xx_hal_rcc.c ****    }
1174:Drivers/STM32H7xx_HAL_Driver/Src/stm32h7xx_hal_rcc.c **** #endif
1175:Drivers/STM32H7xx_HAL_Driver/Src/stm32h7xx_hal_rcc.c ****  }
1176:Drivers/STM32H7xx_HAL_Driver/Src/stm32h7xx_hal_rcc.c **** 
1177:Drivers/STM32H7xx_HAL_Driver/Src/stm32h7xx_hal_rcc.c ****   /* Update the SystemCoreClock global variable */
1178:Drivers/STM32H7xx_HAL_Driver/Src/stm32h7xx_hal_rcc.c **** #if defined(RCC_D1CFGR_D1CPRE)
1179:Drivers/STM32H7xx_HAL_Driver/Src/stm32h7xx_hal_rcc.c ****   common_system_clock = HAL_RCC_GetSysClockFreq() >> ((D1CorePrescTable[(RCC->D1CFGR & RCC_D1CFGR_D
1180:Drivers/STM32H7xx_HAL_Driver/Src/stm32h7xx_hal_rcc.c **** #else
1181:Drivers/STM32H7xx_HAL_Driver/Src/stm32h7xx_hal_rcc.c ****   common_system_clock = HAL_RCC_GetSysClockFreq() >> ((D1CorePrescTable[(RCC->CDCFGR1 & RCC_CDCFGR1
1182:Drivers/STM32H7xx_HAL_Driver/Src/stm32h7xx_hal_rcc.c **** #endif
1183:Drivers/STM32H7xx_HAL_Driver/Src/stm32h7xx_hal_rcc.c **** 
1184:Drivers/STM32H7xx_HAL_Driver/Src/stm32h7xx_hal_rcc.c **** #if defined(RCC_D1CFGR_HPRE)
1185:Drivers/STM32H7xx_HAL_Driver/Src/stm32h7xx_hal_rcc.c ****   SystemD2Clock = (common_system_clock >> ((D1CorePrescTable[(RCC->D1CFGR & RCC_D1CFGR_HPRE)>> RCC_
1186:Drivers/STM32H7xx_HAL_Driver/Src/stm32h7xx_hal_rcc.c **** #else
1187:Drivers/STM32H7xx_HAL_Driver/Src/stm32h7xx_hal_rcc.c ****   SystemD2Clock = (common_system_clock >> ((D1CorePrescTable[(RCC->CDCFGR1 & RCC_CDCFGR1_HPRE)>> RC
1188:Drivers/STM32H7xx_HAL_Driver/Src/stm32h7xx_hal_rcc.c **** #endif
1189:Drivers/STM32H7xx_HAL_Driver/Src/stm32h7xx_hal_rcc.c **** 
1190:Drivers/STM32H7xx_HAL_Driver/Src/stm32h7xx_hal_rcc.c **** #if defined(DUAL_CORE) && defined(CORE_CM4)
1191:Drivers/STM32H7xx_HAL_Driver/Src/stm32h7xx_hal_rcc.c ****   SystemCoreClock = SystemD2Clock;
1192:Drivers/STM32H7xx_HAL_Driver/Src/stm32h7xx_hal_rcc.c **** #else
1193:Drivers/STM32H7xx_HAL_Driver/Src/stm32h7xx_hal_rcc.c ****   SystemCoreClock = common_system_clock;
1194:Drivers/STM32H7xx_HAL_Driver/Src/stm32h7xx_hal_rcc.c **** #endif /* DUAL_CORE && CORE_CM4 */
1195:Drivers/STM32H7xx_HAL_Driver/Src/stm32h7xx_hal_rcc.c **** 
1196:Drivers/STM32H7xx_HAL_Driver/Src/stm32h7xx_hal_rcc.c ****   /* Configure the source of time base considering new system clocks settings*/
1197:Drivers/STM32H7xx_HAL_Driver/Src/stm32h7xx_hal_rcc.c ****   halstatus = HAL_InitTick (uwTickPrio);
1198:Drivers/STM32H7xx_HAL_Driver/Src/stm32h7xx_hal_rcc.c **** 
1199:Drivers/STM32H7xx_HAL_Driver/Src/stm32h7xx_hal_rcc.c ****   return halstatus;
1200:Drivers/STM32H7xx_HAL_Driver/Src/stm32h7xx_hal_rcc.c **** }
1201:Drivers/STM32H7xx_HAL_Driver/Src/stm32h7xx_hal_rcc.c **** 
1202:Drivers/STM32H7xx_HAL_Driver/Src/stm32h7xx_hal_rcc.c **** /**
1203:Drivers/STM32H7xx_HAL_Driver/Src/stm32h7xx_hal_rcc.c ****   * @}
1204:Drivers/STM32H7xx_HAL_Driver/Src/stm32h7xx_hal_rcc.c ****   */
1205:Drivers/STM32H7xx_HAL_Driver/Src/stm32h7xx_hal_rcc.c **** 
1206:Drivers/STM32H7xx_HAL_Driver/Src/stm32h7xx_hal_rcc.c **** /** @defgroup RCC_Group2 Peripheral Control functions
1207:Drivers/STM32H7xx_HAL_Driver/Src/stm32h7xx_hal_rcc.c ****  *  @brief   RCC clocks control functions
1208:Drivers/STM32H7xx_HAL_Driver/Src/stm32h7xx_hal_rcc.c ****  *
1209:Drivers/STM32H7xx_HAL_Driver/Src/stm32h7xx_hal_rcc.c **** @verbatim
1210:Drivers/STM32H7xx_HAL_Driver/Src/stm32h7xx_hal_rcc.c ****  ===============================================================================
1211:Drivers/STM32H7xx_HAL_Driver/Src/stm32h7xx_hal_rcc.c ****                       ##### Peripheral Control functions #####
1212:Drivers/STM32H7xx_HAL_Driver/Src/stm32h7xx_hal_rcc.c ****  ===============================================================================
1213:Drivers/STM32H7xx_HAL_Driver/Src/stm32h7xx_hal_rcc.c ****     [..]
1214:Drivers/STM32H7xx_HAL_Driver/Src/stm32h7xx_hal_rcc.c ****     This subsection provides a set of functions allowing to control the RCC Clocks
1215:Drivers/STM32H7xx_HAL_Driver/Src/stm32h7xx_hal_rcc.c ****     frequencies.
ARM GAS  /tmp/ccLdxC59.s 			page 60


1216:Drivers/STM32H7xx_HAL_Driver/Src/stm32h7xx_hal_rcc.c **** 
1217:Drivers/STM32H7xx_HAL_Driver/Src/stm32h7xx_hal_rcc.c **** @endverbatim
1218:Drivers/STM32H7xx_HAL_Driver/Src/stm32h7xx_hal_rcc.c ****   * @{
1219:Drivers/STM32H7xx_HAL_Driver/Src/stm32h7xx_hal_rcc.c ****   */
1220:Drivers/STM32H7xx_HAL_Driver/Src/stm32h7xx_hal_rcc.c **** 
1221:Drivers/STM32H7xx_HAL_Driver/Src/stm32h7xx_hal_rcc.c **** /**
1222:Drivers/STM32H7xx_HAL_Driver/Src/stm32h7xx_hal_rcc.c ****   * @brief  Selects the clock source to output on MCO1 pin(PA8) or on MCO2 pin(PC9).
1223:Drivers/STM32H7xx_HAL_Driver/Src/stm32h7xx_hal_rcc.c ****   * @note   PA8/PC9 should be configured in alternate function mode.
1224:Drivers/STM32H7xx_HAL_Driver/Src/stm32h7xx_hal_rcc.c ****   * @param  RCC_MCOx: specifies the output direction for the clock source.
1225:Drivers/STM32H7xx_HAL_Driver/Src/stm32h7xx_hal_rcc.c ****   *          This parameter can be one of the following values:
1226:Drivers/STM32H7xx_HAL_Driver/Src/stm32h7xx_hal_rcc.c ****   *            @arg RCC_MCO1: Clock source to output on MCO1 pin(PA8).
1227:Drivers/STM32H7xx_HAL_Driver/Src/stm32h7xx_hal_rcc.c ****   *            @arg RCC_MCO2: Clock source to output on MCO2 pin(PC9).
1228:Drivers/STM32H7xx_HAL_Driver/Src/stm32h7xx_hal_rcc.c ****   * @param  RCC_MCOSource: specifies the clock source to output.
1229:Drivers/STM32H7xx_HAL_Driver/Src/stm32h7xx_hal_rcc.c ****   *          This parameter can be one of the following values:
1230:Drivers/STM32H7xx_HAL_Driver/Src/stm32h7xx_hal_rcc.c ****   *            @arg RCC_MCO1SOURCE_HSI: HSI clock selected as MCO1 source
1231:Drivers/STM32H7xx_HAL_Driver/Src/stm32h7xx_hal_rcc.c ****   *            @arg RCC_MCO1SOURCE_LSE: LSE clock selected as MCO1 source
1232:Drivers/STM32H7xx_HAL_Driver/Src/stm32h7xx_hal_rcc.c ****   *            @arg RCC_MCO1SOURCE_HSE: HSE clock selected as MCO1 source
1233:Drivers/STM32H7xx_HAL_Driver/Src/stm32h7xx_hal_rcc.c ****   *            @arg RCC_MCO1SOURCE_PLL1QCLK:  PLL1Q clock selected as MCO1 source
1234:Drivers/STM32H7xx_HAL_Driver/Src/stm32h7xx_hal_rcc.c ****   *            @arg RCC_MCO1SOURCE_HSI48: HSI48 (48MHZ) selected as MCO1 source
1235:Drivers/STM32H7xx_HAL_Driver/Src/stm32h7xx_hal_rcc.c ****   *            @arg RCC_MCO2SOURCE_SYSCLK: System clock (SYSCLK) selected as MCO2 source
1236:Drivers/STM32H7xx_HAL_Driver/Src/stm32h7xx_hal_rcc.c ****   *            @arg RCC_MCO2SOURCE_PLL2PCLK: PLL2P clock selected as MCO2 source
1237:Drivers/STM32H7xx_HAL_Driver/Src/stm32h7xx_hal_rcc.c ****   *            @arg RCC_MCO2SOURCE_HSE: HSE clock selected as MCO2 source
1238:Drivers/STM32H7xx_HAL_Driver/Src/stm32h7xx_hal_rcc.c ****   *            @arg RCC_MCO2SOURCE_PLLCLK:  PLL1P clock selected as MCO2 source
1239:Drivers/STM32H7xx_HAL_Driver/Src/stm32h7xx_hal_rcc.c ****   *            @arg RCC_MCO2SOURCE_CSICLK:  CSI clock selected as MCO2 source
1240:Drivers/STM32H7xx_HAL_Driver/Src/stm32h7xx_hal_rcc.c ****   *            @arg RCC_MCO2SOURCE_LSICLK:  LSI clock selected as MCO2 source
1241:Drivers/STM32H7xx_HAL_Driver/Src/stm32h7xx_hal_rcc.c ****   * @param  RCC_MCODiv: specifies the MCOx pre-scaler.
1242:Drivers/STM32H7xx_HAL_Driver/Src/stm32h7xx_hal_rcc.c ****   *          This parameter can be one of the following values:
1243:Drivers/STM32H7xx_HAL_Driver/Src/stm32h7xx_hal_rcc.c ****   *            @arg RCC_MCODIV_1 up to RCC_MCODIV_15  : divider applied to MCOx clock
1244:Drivers/STM32H7xx_HAL_Driver/Src/stm32h7xx_hal_rcc.c ****   * @retval None
1245:Drivers/STM32H7xx_HAL_Driver/Src/stm32h7xx_hal_rcc.c ****   */
1246:Drivers/STM32H7xx_HAL_Driver/Src/stm32h7xx_hal_rcc.c **** void HAL_RCC_MCOConfig(uint32_t RCC_MCOx, uint32_t RCC_MCOSource, uint32_t RCC_MCODiv)
1247:Drivers/STM32H7xx_HAL_Driver/Src/stm32h7xx_hal_rcc.c **** {
 1700              		.loc 1 1247 1 view -0
 1701              		.cfi_startproc
 1702              		@ args = 0, pretend = 0, frame = 32
 1703              		@ frame_needed = 0, uses_anonymous_args = 0
1248:Drivers/STM32H7xx_HAL_Driver/Src/stm32h7xx_hal_rcc.c ****   GPIO_InitTypeDef GPIO_InitStruct;
 1704              		.loc 1 1248 3 view .LVU600
1249:Drivers/STM32H7xx_HAL_Driver/Src/stm32h7xx_hal_rcc.c ****   /* Check the parameters */
1250:Drivers/STM32H7xx_HAL_Driver/Src/stm32h7xx_hal_rcc.c ****   assert_param(IS_RCC_MCO(RCC_MCOx));
 1705              		.loc 1 1250 3 view .LVU601
1251:Drivers/STM32H7xx_HAL_Driver/Src/stm32h7xx_hal_rcc.c ****   assert_param(IS_RCC_MCODIV(RCC_MCODiv));
 1706              		.loc 1 1251 3 view .LVU602
1252:Drivers/STM32H7xx_HAL_Driver/Src/stm32h7xx_hal_rcc.c ****   /* RCC_MCO1 */
1253:Drivers/STM32H7xx_HAL_Driver/Src/stm32h7xx_hal_rcc.c ****   if(RCC_MCOx == RCC_MCO1)
 1707              		.loc 1 1253 3 view .LVU603
1247:Drivers/STM32H7xx_HAL_Driver/Src/stm32h7xx_hal_rcc.c ****   GPIO_InitTypeDef GPIO_InitStruct;
 1708              		.loc 1 1247 1 is_stmt 0 view .LVU604
 1709 0000 F0B5     		push	{r4, r5, r6, r7, lr}
 1710              	.LCFI4:
 1711              		.cfi_def_cfa_offset 20
 1712              		.cfi_offset 4, -20
 1713              		.cfi_offset 5, -16
 1714              		.cfi_offset 6, -12
 1715              		.cfi_offset 7, -8
 1716              		.cfi_offset 14, -4
 1717 0002 0D46     		mov	r5, r1
ARM GAS  /tmp/ccLdxC59.s 			page 61


 1718 0004 89B0     		sub	sp, sp, #36
 1719              	.LCFI5:
 1720              		.cfi_def_cfa_offset 56
1247:Drivers/STM32H7xx_HAL_Driver/Src/stm32h7xx_hal_rcc.c ****   GPIO_InitTypeDef GPIO_InitStruct;
 1721              		.loc 1 1247 1 view .LVU605
 1722 0006 1446     		mov	r4, r2
 1723              	.LBB18:
1254:Drivers/STM32H7xx_HAL_Driver/Src/stm32h7xx_hal_rcc.c ****   {
1255:Drivers/STM32H7xx_HAL_Driver/Src/stm32h7xx_hal_rcc.c ****     assert_param(IS_RCC_MCO1SOURCE(RCC_MCOSource));
1256:Drivers/STM32H7xx_HAL_Driver/Src/stm32h7xx_hal_rcc.c **** 
1257:Drivers/STM32H7xx_HAL_Driver/Src/stm32h7xx_hal_rcc.c ****     /* MCO1 Clock Enable */
1258:Drivers/STM32H7xx_HAL_Driver/Src/stm32h7xx_hal_rcc.c ****     MCO1_CLK_ENABLE();
 1724              		.loc 1 1258 5 view .LVU606
 1725 0008 234E     		ldr	r6, .L177
 1726              	.LBE18:
1253:Drivers/STM32H7xx_HAL_Driver/Src/stm32h7xx_hal_rcc.c ****   {
 1727              		.loc 1 1253 5 view .LVU607
 1728 000a 00BB     		cbnz	r0, .L174
1255:Drivers/STM32H7xx_HAL_Driver/Src/stm32h7xx_hal_rcc.c **** 
 1729              		.loc 1 1255 5 is_stmt 1 view .LVU608
 1730              		.loc 1 1258 5 view .LVU609
 1731              	.LBB19:
 1732              		.loc 1 1258 5 view .LVU610
 1733              		.loc 1 1258 5 view .LVU611
 1734 000c D6F8E030 		ldr	r3, [r6, #224]
 1735              	.LBE19:
1259:Drivers/STM32H7xx_HAL_Driver/Src/stm32h7xx_hal_rcc.c **** 
1260:Drivers/STM32H7xx_HAL_Driver/Src/stm32h7xx_hal_rcc.c ****     /* Configure the MCO1 pin in alternate function mode */
1261:Drivers/STM32H7xx_HAL_Driver/Src/stm32h7xx_hal_rcc.c ****     GPIO_InitStruct.Pin = MCO1_PIN;
 1736              		.loc 1 1261 25 is_stmt 0 view .LVU612
 1737 0010 4FF48072 		mov	r2, #256
 1738              	.LVL146:
1262:Drivers/STM32H7xx_HAL_Driver/Src/stm32h7xx_hal_rcc.c ****     GPIO_InitStruct.Mode = GPIO_MODE_AF_PP;
 1739              		.loc 1 1262 26 view .LVU613
 1740 0014 0227     		movs	r7, #2
1263:Drivers/STM32H7xx_HAL_Driver/Src/stm32h7xx_hal_rcc.c ****     GPIO_InitStruct.Speed = GPIO_SPEED_FREQ_VERY_HIGH;
1264:Drivers/STM32H7xx_HAL_Driver/Src/stm32h7xx_hal_rcc.c ****     GPIO_InitStruct.Pull = GPIO_NOPULL;
1265:Drivers/STM32H7xx_HAL_Driver/Src/stm32h7xx_hal_rcc.c ****     GPIO_InitStruct.Alternate = GPIO_AF0_MCO;
1266:Drivers/STM32H7xx_HAL_Driver/Src/stm32h7xx_hal_rcc.c ****     HAL_GPIO_Init(MCO1_GPIO_PORT, &GPIO_InitStruct);
 1741              		.loc 1 1266 5 view .LVU614
 1742 0016 03A9     		add	r1, sp, #12
 1743              	.LVL147:
 1744              	.LBB20:
1258:Drivers/STM32H7xx_HAL_Driver/Src/stm32h7xx_hal_rcc.c **** 
 1745              		.loc 1 1258 5 view .LVU615
 1746 0018 43F00103 		orr	r3, r3, #1
 1747 001c C6F8E030 		str	r3, [r6, #224]
1258:Drivers/STM32H7xx_HAL_Driver/Src/stm32h7xx_hal_rcc.c **** 
 1748              		.loc 1 1258 5 is_stmt 1 view .LVU616
 1749 0020 D6F8E030 		ldr	r3, [r6, #224]
 1750              	.LBE20:
1261:Drivers/STM32H7xx_HAL_Driver/Src/stm32h7xx_hal_rcc.c ****     GPIO_InitStruct.Mode = GPIO_MODE_AF_PP;
 1751              		.loc 1 1261 25 is_stmt 0 view .LVU617
 1752 0024 0392     		str	r2, [sp, #12]
1263:Drivers/STM32H7xx_HAL_Driver/Src/stm32h7xx_hal_rcc.c ****     GPIO_InitStruct.Speed = GPIO_SPEED_FREQ_VERY_HIGH;
 1753              		.loc 1 1263 27 view .LVU618
 1754 0026 0322     		movs	r2, #3
ARM GAS  /tmp/ccLdxC59.s 			page 62


 1755              	.LBB21:
1258:Drivers/STM32H7xx_HAL_Driver/Src/stm32h7xx_hal_rcc.c **** 
 1756              		.loc 1 1258 5 view .LVU619
 1757 0028 03F00103 		and	r3, r3, #1
 1758              	.LBE21:
1264:Drivers/STM32H7xx_HAL_Driver/Src/stm32h7xx_hal_rcc.c ****     GPIO_InitStruct.Alternate = GPIO_AF0_MCO;
 1759              		.loc 1 1264 26 view .LVU620
 1760 002c 0590     		str	r0, [sp, #20]
1265:Drivers/STM32H7xx_HAL_Driver/Src/stm32h7xx_hal_rcc.c ****     HAL_GPIO_Init(MCO1_GPIO_PORT, &GPIO_InitStruct);
 1761              		.loc 1 1265 31 view .LVU621
 1762 002e 0790     		str	r0, [sp, #28]
 1763              	.LBB22:
1258:Drivers/STM32H7xx_HAL_Driver/Src/stm32h7xx_hal_rcc.c **** 
 1764              		.loc 1 1258 5 view .LVU622
 1765 0030 0193     		str	r3, [sp, #4]
1258:Drivers/STM32H7xx_HAL_Driver/Src/stm32h7xx_hal_rcc.c **** 
 1766              		.loc 1 1258 5 is_stmt 1 view .LVU623
 1767              	.LBE22:
 1768              		.loc 1 1266 5 is_stmt 0 view .LVU624
 1769 0032 1A48     		ldr	r0, .L177+4
 1770              	.LVL148:
1263:Drivers/STM32H7xx_HAL_Driver/Src/stm32h7xx_hal_rcc.c ****     GPIO_InitStruct.Pull = GPIO_NOPULL;
 1771              		.loc 1 1263 27 view .LVU625
 1772 0034 0692     		str	r2, [sp, #24]
 1773              	.LBB23:
1258:Drivers/STM32H7xx_HAL_Driver/Src/stm32h7xx_hal_rcc.c **** 
 1774              		.loc 1 1258 5 view .LVU626
 1775 0036 019B     		ldr	r3, [sp, #4]
 1776              	.LBE23:
1258:Drivers/STM32H7xx_HAL_Driver/Src/stm32h7xx_hal_rcc.c **** 
 1777              		.loc 1 1258 5 is_stmt 1 view .LVU627
1261:Drivers/STM32H7xx_HAL_Driver/Src/stm32h7xx_hal_rcc.c ****     GPIO_InitStruct.Mode = GPIO_MODE_AF_PP;
 1778              		.loc 1 1261 5 view .LVU628
1262:Drivers/STM32H7xx_HAL_Driver/Src/stm32h7xx_hal_rcc.c ****     GPIO_InitStruct.Speed = GPIO_SPEED_FREQ_VERY_HIGH;
 1779              		.loc 1 1262 5 view .LVU629
1262:Drivers/STM32H7xx_HAL_Driver/Src/stm32h7xx_hal_rcc.c ****     GPIO_InitStruct.Speed = GPIO_SPEED_FREQ_VERY_HIGH;
 1780              		.loc 1 1262 26 is_stmt 0 view .LVU630
 1781 0038 0497     		str	r7, [sp, #16]
1263:Drivers/STM32H7xx_HAL_Driver/Src/stm32h7xx_hal_rcc.c ****     GPIO_InitStruct.Pull = GPIO_NOPULL;
 1782              		.loc 1 1263 5 is_stmt 1 view .LVU631
1264:Drivers/STM32H7xx_HAL_Driver/Src/stm32h7xx_hal_rcc.c ****     GPIO_InitStruct.Alternate = GPIO_AF0_MCO;
 1783              		.loc 1 1264 5 view .LVU632
1265:Drivers/STM32H7xx_HAL_Driver/Src/stm32h7xx_hal_rcc.c ****     HAL_GPIO_Init(MCO1_GPIO_PORT, &GPIO_InitStruct);
 1784              		.loc 1 1265 5 view .LVU633
 1785              		.loc 1 1266 5 view .LVU634
 1786 003a FFF7FEFF 		bl	HAL_GPIO_Init
 1787              	.LVL149:
1267:Drivers/STM32H7xx_HAL_Driver/Src/stm32h7xx_hal_rcc.c **** 
1268:Drivers/STM32H7xx_HAL_Driver/Src/stm32h7xx_hal_rcc.c ****     /* Mask MCO1 and MCO1PRE[3:0] bits then Select MCO1 clock source and pre-scaler */
1269:Drivers/STM32H7xx_HAL_Driver/Src/stm32h7xx_hal_rcc.c ****     MODIFY_REG(RCC->CFGR, (RCC_CFGR_MCO1 | RCC_CFGR_MCO1PRE), (RCC_MCOSource | RCC_MCODiv));
 1788              		.loc 1 1269 5 view .LVU635
 1789 003e 3269     		ldr	r2, [r6, #16]
 1790 0040 22F0FE72 		bic	r2, r2, #33292288
 1791 0044 2A43     		orrs	r2, r2, r5
 1792 0046 2243     		orrs	r2, r2, r4
 1793 0048 3261     		str	r2, [r6, #16]
1270:Drivers/STM32H7xx_HAL_Driver/Src/stm32h7xx_hal_rcc.c ****   }
ARM GAS  /tmp/ccLdxC59.s 			page 63


1271:Drivers/STM32H7xx_HAL_Driver/Src/stm32h7xx_hal_rcc.c ****   else
1272:Drivers/STM32H7xx_HAL_Driver/Src/stm32h7xx_hal_rcc.c ****   {
1273:Drivers/STM32H7xx_HAL_Driver/Src/stm32h7xx_hal_rcc.c ****     assert_param(IS_RCC_MCO2SOURCE(RCC_MCOSource));
1274:Drivers/STM32H7xx_HAL_Driver/Src/stm32h7xx_hal_rcc.c **** 
1275:Drivers/STM32H7xx_HAL_Driver/Src/stm32h7xx_hal_rcc.c ****     /* MCO2 Clock Enable */
1276:Drivers/STM32H7xx_HAL_Driver/Src/stm32h7xx_hal_rcc.c ****     MCO2_CLK_ENABLE();
1277:Drivers/STM32H7xx_HAL_Driver/Src/stm32h7xx_hal_rcc.c **** 
1278:Drivers/STM32H7xx_HAL_Driver/Src/stm32h7xx_hal_rcc.c ****     /* Configure the MCO2 pin in alternate function mode */
1279:Drivers/STM32H7xx_HAL_Driver/Src/stm32h7xx_hal_rcc.c ****     GPIO_InitStruct.Pin = MCO2_PIN;
1280:Drivers/STM32H7xx_HAL_Driver/Src/stm32h7xx_hal_rcc.c ****     GPIO_InitStruct.Mode = GPIO_MODE_AF_PP;
1281:Drivers/STM32H7xx_HAL_Driver/Src/stm32h7xx_hal_rcc.c ****     GPIO_InitStruct.Speed = GPIO_SPEED_FREQ_VERY_HIGH;
1282:Drivers/STM32H7xx_HAL_Driver/Src/stm32h7xx_hal_rcc.c ****     GPIO_InitStruct.Pull = GPIO_NOPULL;
1283:Drivers/STM32H7xx_HAL_Driver/Src/stm32h7xx_hal_rcc.c ****     GPIO_InitStruct.Alternate = GPIO_AF0_MCO;
1284:Drivers/STM32H7xx_HAL_Driver/Src/stm32h7xx_hal_rcc.c ****     HAL_GPIO_Init(MCO2_GPIO_PORT, &GPIO_InitStruct);
1285:Drivers/STM32H7xx_HAL_Driver/Src/stm32h7xx_hal_rcc.c **** 
1286:Drivers/STM32H7xx_HAL_Driver/Src/stm32h7xx_hal_rcc.c ****     /* Mask MCO2 and MCO2PRE[3:0] bits then Select MCO2 clock source and pre-scaler */
1287:Drivers/STM32H7xx_HAL_Driver/Src/stm32h7xx_hal_rcc.c ****     MODIFY_REG(RCC->CFGR, (RCC_CFGR_MCO2 | RCC_CFGR_MCO2PRE), (RCC_MCOSource | (RCC_MCODiv << 7U)))
1288:Drivers/STM32H7xx_HAL_Driver/Src/stm32h7xx_hal_rcc.c ****   }
1289:Drivers/STM32H7xx_HAL_Driver/Src/stm32h7xx_hal_rcc.c **** }
 1794              		.loc 1 1289 1 is_stmt 0 view .LVU636
 1795 004a 09B0     		add	sp, sp, #36
 1796              	.LCFI6:
 1797              		.cfi_remember_state
 1798              		.cfi_def_cfa_offset 20
 1799              		@ sp needed
 1800 004c F0BD     		pop	{r4, r5, r6, r7, pc}
 1801              	.LVL150:
 1802              	.L174:
 1803              	.LCFI7:
 1804              		.cfi_restore_state
1273:Drivers/STM32H7xx_HAL_Driver/Src/stm32h7xx_hal_rcc.c **** 
 1805              		.loc 1 1273 5 is_stmt 1 view .LVU637
1276:Drivers/STM32H7xx_HAL_Driver/Src/stm32h7xx_hal_rcc.c **** 
 1806              		.loc 1 1276 5 view .LVU638
 1807              	.LBB24:
1276:Drivers/STM32H7xx_HAL_Driver/Src/stm32h7xx_hal_rcc.c **** 
 1808              		.loc 1 1276 5 view .LVU639
1276:Drivers/STM32H7xx_HAL_Driver/Src/stm32h7xx_hal_rcc.c **** 
 1809              		.loc 1 1276 5 view .LVU640
 1810 004e D6F8E030 		ldr	r3, [r6, #224]
 1811              	.LBE24:
1280:Drivers/STM32H7xx_HAL_Driver/Src/stm32h7xx_hal_rcc.c ****     GPIO_InitStruct.Speed = GPIO_SPEED_FREQ_VERY_HIGH;
 1812              		.loc 1 1280 26 is_stmt 0 view .LVU641
 1813 0052 0222     		movs	r2, #2
 1814              	.LVL151:
1279:Drivers/STM32H7xx_HAL_Driver/Src/stm32h7xx_hal_rcc.c ****     GPIO_InitStruct.Mode = GPIO_MODE_AF_PP;
 1815              		.loc 1 1279 25 view .LVU642
 1816 0054 4FF40070 		mov	r0, #512
 1817              	.LVL152:
1281:Drivers/STM32H7xx_HAL_Driver/Src/stm32h7xx_hal_rcc.c ****     GPIO_InitStruct.Pull = GPIO_NOPULL;
 1818              		.loc 1 1281 27 view .LVU643
 1819 0058 0321     		movs	r1, #3
 1820              	.LVL153:
 1821              	.LBB25:
1276:Drivers/STM32H7xx_HAL_Driver/Src/stm32h7xx_hal_rcc.c **** 
 1822              		.loc 1 1276 5 view .LVU644
 1823 005a 43F00403 		orr	r3, r3, #4
ARM GAS  /tmp/ccLdxC59.s 			page 64


 1824 005e C6F8E030 		str	r3, [r6, #224]
1276:Drivers/STM32H7xx_HAL_Driver/Src/stm32h7xx_hal_rcc.c **** 
 1825              		.loc 1 1276 5 is_stmt 1 view .LVU645
 1826 0062 D6F8E030 		ldr	r3, [r6, #224]
 1827              	.LBE25:
1280:Drivers/STM32H7xx_HAL_Driver/Src/stm32h7xx_hal_rcc.c ****     GPIO_InitStruct.Speed = GPIO_SPEED_FREQ_VERY_HIGH;
 1828              		.loc 1 1280 26 is_stmt 0 view .LVU646
 1829 0066 0492     		str	r2, [sp, #16]
1282:Drivers/STM32H7xx_HAL_Driver/Src/stm32h7xx_hal_rcc.c ****     GPIO_InitStruct.Alternate = GPIO_AF0_MCO;
 1830              		.loc 1 1282 26 view .LVU647
 1831 0068 0022     		movs	r2, #0
 1832              	.LBB26:
1276:Drivers/STM32H7xx_HAL_Driver/Src/stm32h7xx_hal_rcc.c **** 
 1833              		.loc 1 1276 5 view .LVU648
 1834 006a 03F00403 		and	r3, r3, #4
 1835              	.LBE26:
1279:Drivers/STM32H7xx_HAL_Driver/Src/stm32h7xx_hal_rcc.c ****     GPIO_InitStruct.Mode = GPIO_MODE_AF_PP;
 1836              		.loc 1 1279 25 view .LVU649
 1837 006e 0390     		str	r0, [sp, #12]
1281:Drivers/STM32H7xx_HAL_Driver/Src/stm32h7xx_hal_rcc.c ****     GPIO_InitStruct.Pull = GPIO_NOPULL;
 1838              		.loc 1 1281 27 view .LVU650
 1839 0070 0691     		str	r1, [sp, #24]
1284:Drivers/STM32H7xx_HAL_Driver/Src/stm32h7xx_hal_rcc.c **** 
 1840              		.loc 1 1284 5 view .LVU651
 1841 0072 03A9     		add	r1, sp, #12
 1842              	.LBB27:
1276:Drivers/STM32H7xx_HAL_Driver/Src/stm32h7xx_hal_rcc.c **** 
 1843              		.loc 1 1276 5 view .LVU652
 1844 0074 0293     		str	r3, [sp, #8]
1276:Drivers/STM32H7xx_HAL_Driver/Src/stm32h7xx_hal_rcc.c **** 
 1845              		.loc 1 1276 5 is_stmt 1 view .LVU653
 1846              	.LBE27:
1284:Drivers/STM32H7xx_HAL_Driver/Src/stm32h7xx_hal_rcc.c **** 
 1847              		.loc 1 1284 5 is_stmt 0 view .LVU654
 1848 0076 0A48     		ldr	r0, .L177+8
 1849              	.LBB28:
1276:Drivers/STM32H7xx_HAL_Driver/Src/stm32h7xx_hal_rcc.c **** 
 1850              		.loc 1 1276 5 view .LVU655
 1851 0078 029B     		ldr	r3, [sp, #8]
 1852              	.LBE28:
1276:Drivers/STM32H7xx_HAL_Driver/Src/stm32h7xx_hal_rcc.c **** 
 1853              		.loc 1 1276 5 is_stmt 1 view .LVU656
1279:Drivers/STM32H7xx_HAL_Driver/Src/stm32h7xx_hal_rcc.c ****     GPIO_InitStruct.Mode = GPIO_MODE_AF_PP;
 1854              		.loc 1 1279 5 view .LVU657
1280:Drivers/STM32H7xx_HAL_Driver/Src/stm32h7xx_hal_rcc.c ****     GPIO_InitStruct.Speed = GPIO_SPEED_FREQ_VERY_HIGH;
 1855              		.loc 1 1280 5 view .LVU658
1281:Drivers/STM32H7xx_HAL_Driver/Src/stm32h7xx_hal_rcc.c ****     GPIO_InitStruct.Pull = GPIO_NOPULL;
 1856              		.loc 1 1281 5 view .LVU659
1282:Drivers/STM32H7xx_HAL_Driver/Src/stm32h7xx_hal_rcc.c ****     GPIO_InitStruct.Alternate = GPIO_AF0_MCO;
 1857              		.loc 1 1282 5 view .LVU660
1282:Drivers/STM32H7xx_HAL_Driver/Src/stm32h7xx_hal_rcc.c ****     GPIO_InitStruct.Alternate = GPIO_AF0_MCO;
 1858              		.loc 1 1282 26 is_stmt 0 view .LVU661
 1859 007a 0592     		str	r2, [sp, #20]
1283:Drivers/STM32H7xx_HAL_Driver/Src/stm32h7xx_hal_rcc.c ****     HAL_GPIO_Init(MCO2_GPIO_PORT, &GPIO_InitStruct);
 1860              		.loc 1 1283 5 is_stmt 1 view .LVU662
1283:Drivers/STM32H7xx_HAL_Driver/Src/stm32h7xx_hal_rcc.c ****     HAL_GPIO_Init(MCO2_GPIO_PORT, &GPIO_InitStruct);
 1861              		.loc 1 1283 31 is_stmt 0 view .LVU663
ARM GAS  /tmp/ccLdxC59.s 			page 65


 1862 007c 0792     		str	r2, [sp, #28]
1284:Drivers/STM32H7xx_HAL_Driver/Src/stm32h7xx_hal_rcc.c **** 
 1863              		.loc 1 1284 5 is_stmt 1 view .LVU664
 1864 007e FFF7FEFF 		bl	HAL_GPIO_Init
 1865              	.LVL154:
1287:Drivers/STM32H7xx_HAL_Driver/Src/stm32h7xx_hal_rcc.c ****   }
 1866              		.loc 1 1287 5 view .LVU665
 1867 0082 3369     		ldr	r3, [r6, #16]
 1868 0084 23F07E43 		bic	r3, r3, #-33554432
 1869 0088 43EA0501 		orr	r1, r3, r5
 1870 008c 41EAC411 		orr	r1, r1, r4, lsl #7
 1871 0090 3161     		str	r1, [r6, #16]
 1872              		.loc 1 1289 1 is_stmt 0 view .LVU666
 1873 0092 09B0     		add	sp, sp, #36
 1874              	.LCFI8:
 1875              		.cfi_def_cfa_offset 20
 1876              		@ sp needed
 1877 0094 F0BD     		pop	{r4, r5, r6, r7, pc}
 1878              	.LVL155:
 1879              	.L178:
 1880              		.loc 1 1289 1 view .LVU667
 1881 0096 00BF     		.align	2
 1882              	.L177:
 1883 0098 00440258 		.word	1476543488
 1884 009c 00000258 		.word	1476526080
 1885 00a0 00080258 		.word	1476528128
 1886              		.cfi_endproc
 1887              	.LFE144:
 1889              		.section	.text.HAL_RCC_EnableCSS,"ax",%progbits
 1890              		.align	1
 1891              		.p2align 2,,3
 1892              		.global	HAL_RCC_EnableCSS
 1893              		.syntax unified
 1894              		.thumb
 1895              		.thumb_func
 1896              		.fpu fpv5-d16
 1898              	HAL_RCC_EnableCSS:
 1899              	.LFB145:
1290:Drivers/STM32H7xx_HAL_Driver/Src/stm32h7xx_hal_rcc.c **** 
1291:Drivers/STM32H7xx_HAL_Driver/Src/stm32h7xx_hal_rcc.c **** /**
1292:Drivers/STM32H7xx_HAL_Driver/Src/stm32h7xx_hal_rcc.c ****   * @brief  Enables the Clock Security System.
1293:Drivers/STM32H7xx_HAL_Driver/Src/stm32h7xx_hal_rcc.c ****   * @note   If a failure is detected on the HSE oscillator clock, this oscillator
1294:Drivers/STM32H7xx_HAL_Driver/Src/stm32h7xx_hal_rcc.c ****   *         is automatically disabled and an interrupt is generated to inform the
1295:Drivers/STM32H7xx_HAL_Driver/Src/stm32h7xx_hal_rcc.c ****   *         software about the failure (Clock Security System Interrupt, CSSI),
1296:Drivers/STM32H7xx_HAL_Driver/Src/stm32h7xx_hal_rcc.c ****   *         allowing the MCU to perform rescue operations. The CSSI is linked to
1297:Drivers/STM32H7xx_HAL_Driver/Src/stm32h7xx_hal_rcc.c ****   *         the Cortex-M NMI (Non-Mask-able Interrupt) exception vector.
1298:Drivers/STM32H7xx_HAL_Driver/Src/stm32h7xx_hal_rcc.c ****   * @retval None
1299:Drivers/STM32H7xx_HAL_Driver/Src/stm32h7xx_hal_rcc.c ****   */
1300:Drivers/STM32H7xx_HAL_Driver/Src/stm32h7xx_hal_rcc.c **** void HAL_RCC_EnableCSS(void)
1301:Drivers/STM32H7xx_HAL_Driver/Src/stm32h7xx_hal_rcc.c **** {
 1900              		.loc 1 1301 1 is_stmt 1 view -0
 1901              		.cfi_startproc
 1902              		@ args = 0, pretend = 0, frame = 0
 1903              		@ frame_needed = 0, uses_anonymous_args = 0
 1904              		@ link register save eliminated.
1302:Drivers/STM32H7xx_HAL_Driver/Src/stm32h7xx_hal_rcc.c ****   SET_BIT(RCC->CR, RCC_CR_CSSHSEON) ;
 1905              		.loc 1 1302 3 view .LVU669
ARM GAS  /tmp/ccLdxC59.s 			page 66


 1906 0000 024A     		ldr	r2, .L180
 1907 0002 1368     		ldr	r3, [r2]
 1908 0004 43F40023 		orr	r3, r3, #524288
 1909 0008 1360     		str	r3, [r2]
1303:Drivers/STM32H7xx_HAL_Driver/Src/stm32h7xx_hal_rcc.c **** }
 1910              		.loc 1 1303 1 is_stmt 0 view .LVU670
 1911 000a 7047     		bx	lr
 1912              	.L181:
 1913              		.align	2
 1914              	.L180:
 1915 000c 00440258 		.word	1476543488
 1916              		.cfi_endproc
 1917              	.LFE145:
 1919              		.section	.text.HAL_RCC_DisableCSS,"ax",%progbits
 1920              		.align	1
 1921              		.p2align 2,,3
 1922              		.global	HAL_RCC_DisableCSS
 1923              		.syntax unified
 1924              		.thumb
 1925              		.thumb_func
 1926              		.fpu fpv5-d16
 1928              	HAL_RCC_DisableCSS:
 1929              	.LFB146:
1304:Drivers/STM32H7xx_HAL_Driver/Src/stm32h7xx_hal_rcc.c **** 
1305:Drivers/STM32H7xx_HAL_Driver/Src/stm32h7xx_hal_rcc.c **** /**
1306:Drivers/STM32H7xx_HAL_Driver/Src/stm32h7xx_hal_rcc.c ****   * @brief  Disables the Clock Security System.
1307:Drivers/STM32H7xx_HAL_Driver/Src/stm32h7xx_hal_rcc.c ****   * @retval None
1308:Drivers/STM32H7xx_HAL_Driver/Src/stm32h7xx_hal_rcc.c ****   */
1309:Drivers/STM32H7xx_HAL_Driver/Src/stm32h7xx_hal_rcc.c **** void HAL_RCC_DisableCSS(void)
1310:Drivers/STM32H7xx_HAL_Driver/Src/stm32h7xx_hal_rcc.c **** {
 1930              		.loc 1 1310 1 is_stmt 1 view -0
 1931              		.cfi_startproc
 1932              		@ args = 0, pretend = 0, frame = 0
 1933              		@ frame_needed = 0, uses_anonymous_args = 0
 1934              		@ link register save eliminated.
1311:Drivers/STM32H7xx_HAL_Driver/Src/stm32h7xx_hal_rcc.c ****   CLEAR_BIT(RCC->CR, RCC_CR_CSSHSEON);
 1935              		.loc 1 1311 3 view .LVU672
 1936 0000 024A     		ldr	r2, .L183
 1937 0002 1368     		ldr	r3, [r2]
 1938 0004 23F40023 		bic	r3, r3, #524288
 1939 0008 1360     		str	r3, [r2]
1312:Drivers/STM32H7xx_HAL_Driver/Src/stm32h7xx_hal_rcc.c **** }
 1940              		.loc 1 1312 1 is_stmt 0 view .LVU673
 1941 000a 7047     		bx	lr
 1942              	.L184:
 1943              		.align	2
 1944              	.L183:
 1945 000c 00440258 		.word	1476543488
 1946              		.cfi_endproc
 1947              	.LFE146:
 1949              		.section	.text.HAL_RCC_GetSysClockFreq,"ax",%progbits
 1950              		.align	1
 1951              		.p2align 2,,3
 1952              		.global	HAL_RCC_GetSysClockFreq
 1953              		.syntax unified
 1954              		.thumb
 1955              		.thumb_func
ARM GAS  /tmp/ccLdxC59.s 			page 67


 1956              		.fpu fpv5-d16
 1958              	HAL_RCC_GetSysClockFreq:
 1959              	.LFB147:
1313:Drivers/STM32H7xx_HAL_Driver/Src/stm32h7xx_hal_rcc.c **** 
1314:Drivers/STM32H7xx_HAL_Driver/Src/stm32h7xx_hal_rcc.c **** /**
1315:Drivers/STM32H7xx_HAL_Driver/Src/stm32h7xx_hal_rcc.c ****   * @brief  Returns the SYSCLK frequency
1316:Drivers/STM32H7xx_HAL_Driver/Src/stm32h7xx_hal_rcc.c ****   *
1317:Drivers/STM32H7xx_HAL_Driver/Src/stm32h7xx_hal_rcc.c ****   * @note   The system frequency computed by this function is not the real
1318:Drivers/STM32H7xx_HAL_Driver/Src/stm32h7xx_hal_rcc.c ****   *         frequency in the chip. It is calculated based on the predefined
1319:Drivers/STM32H7xx_HAL_Driver/Src/stm32h7xx_hal_rcc.c ****   *         constant and the selected clock source:
1320:Drivers/STM32H7xx_HAL_Driver/Src/stm32h7xx_hal_rcc.c ****   * @note     If SYSCLK source is CSI, function returns values based on CSI_VALUE(*)
1321:Drivers/STM32H7xx_HAL_Driver/Src/stm32h7xx_hal_rcc.c ****   * @note     If SYSCLK source is HSI, function returns values based on HSI_VALUE(**)
1322:Drivers/STM32H7xx_HAL_Driver/Src/stm32h7xx_hal_rcc.c ****   * @note     If SYSCLK source is HSE, function returns values based on HSE_VALUE(***)
1323:Drivers/STM32H7xx_HAL_Driver/Src/stm32h7xx_hal_rcc.c ****   * @note     If SYSCLK source is PLL, function returns values based on CSI_VALUE(*),
1324:Drivers/STM32H7xx_HAL_Driver/Src/stm32h7xx_hal_rcc.c ****   *           HSI_VALUE(**) or HSE_VALUE(***) multiplied/divided by the PLL factors.
1325:Drivers/STM32H7xx_HAL_Driver/Src/stm32h7xx_hal_rcc.c ****   * @note     (*) CSI_VALUE is a constant defined in stm32h7xx_hal_conf.h file (default value
1326:Drivers/STM32H7xx_HAL_Driver/Src/stm32h7xx_hal_rcc.c ****   *               4 MHz) but the real value may vary depending on the variations
1327:Drivers/STM32H7xx_HAL_Driver/Src/stm32h7xx_hal_rcc.c ****   *               in voltage and temperature.
1328:Drivers/STM32H7xx_HAL_Driver/Src/stm32h7xx_hal_rcc.c ****   * @note     (**) HSI_VALUE is a constant defined in stm32h7xx_hal_conf.h file (default value
1329:Drivers/STM32H7xx_HAL_Driver/Src/stm32h7xx_hal_rcc.c ****   *               64 MHz) but the real value may vary depending on the variations
1330:Drivers/STM32H7xx_HAL_Driver/Src/stm32h7xx_hal_rcc.c ****   *               in voltage and temperature.
1331:Drivers/STM32H7xx_HAL_Driver/Src/stm32h7xx_hal_rcc.c ****   * @note     (***) HSE_VALUE is a constant defined in stm32h7xx_hal_conf.h file (default value
1332:Drivers/STM32H7xx_HAL_Driver/Src/stm32h7xx_hal_rcc.c ****   *                25 MHz), user has to ensure that HSE_VALUE is same as the real
1333:Drivers/STM32H7xx_HAL_Driver/Src/stm32h7xx_hal_rcc.c ****   *                frequency of the crystal used. Otherwise, this function may
1334:Drivers/STM32H7xx_HAL_Driver/Src/stm32h7xx_hal_rcc.c ****   *                have wrong result.
1335:Drivers/STM32H7xx_HAL_Driver/Src/stm32h7xx_hal_rcc.c ****   *
1336:Drivers/STM32H7xx_HAL_Driver/Src/stm32h7xx_hal_rcc.c ****   * @note   The result of this function could be not correct when using fractional
1337:Drivers/STM32H7xx_HAL_Driver/Src/stm32h7xx_hal_rcc.c ****   *         value for HSE crystal.
1338:Drivers/STM32H7xx_HAL_Driver/Src/stm32h7xx_hal_rcc.c ****   *
1339:Drivers/STM32H7xx_HAL_Driver/Src/stm32h7xx_hal_rcc.c ****   * @note   This function can be used by the user application to compute the
1340:Drivers/STM32H7xx_HAL_Driver/Src/stm32h7xx_hal_rcc.c ****   *         baud rate for the communication peripherals or configure other parameters.
1341:Drivers/STM32H7xx_HAL_Driver/Src/stm32h7xx_hal_rcc.c ****   *
1342:Drivers/STM32H7xx_HAL_Driver/Src/stm32h7xx_hal_rcc.c ****   * @note   Each time SYSCLK changes, this function must be called to update the
1343:Drivers/STM32H7xx_HAL_Driver/Src/stm32h7xx_hal_rcc.c ****   *         right SYSCLK value. Otherwise, any configuration based on this function will be incorre
1344:Drivers/STM32H7xx_HAL_Driver/Src/stm32h7xx_hal_rcc.c ****   *
1345:Drivers/STM32H7xx_HAL_Driver/Src/stm32h7xx_hal_rcc.c ****   *
1346:Drivers/STM32H7xx_HAL_Driver/Src/stm32h7xx_hal_rcc.c ****   * @retval SYSCLK frequency
1347:Drivers/STM32H7xx_HAL_Driver/Src/stm32h7xx_hal_rcc.c ****   */
1348:Drivers/STM32H7xx_HAL_Driver/Src/stm32h7xx_hal_rcc.c **** uint32_t HAL_RCC_GetSysClockFreq(void)
1349:Drivers/STM32H7xx_HAL_Driver/Src/stm32h7xx_hal_rcc.c **** {
 1960              		.loc 1 1349 1 is_stmt 1 view -0
 1961              		.cfi_startproc
 1962              		@ args = 0, pretend = 0, frame = 0
 1963              		@ frame_needed = 0, uses_anonymous_args = 0
 1964              		@ link register save eliminated.
1350:Drivers/STM32H7xx_HAL_Driver/Src/stm32h7xx_hal_rcc.c ****   uint32_t pllp, pllsource, pllm, pllfracen, hsivalue;
 1965              		.loc 1 1350 3 view .LVU675
1351:Drivers/STM32H7xx_HAL_Driver/Src/stm32h7xx_hal_rcc.c ****   float_t fracn1, pllvco;
 1966              		.loc 1 1351 3 view .LVU676
1352:Drivers/STM32H7xx_HAL_Driver/Src/stm32h7xx_hal_rcc.c ****   uint32_t sysclockfreq;
 1967              		.loc 1 1352 3 view .LVU677
1353:Drivers/STM32H7xx_HAL_Driver/Src/stm32h7xx_hal_rcc.c **** 
1354:Drivers/STM32H7xx_HAL_Driver/Src/stm32h7xx_hal_rcc.c ****   /* Get SYSCLK source -------------------------------------------------------*/
1355:Drivers/STM32H7xx_HAL_Driver/Src/stm32h7xx_hal_rcc.c **** 
1356:Drivers/STM32H7xx_HAL_Driver/Src/stm32h7xx_hal_rcc.c ****   switch (RCC->CFGR & RCC_CFGR_SWS)
 1968              		.loc 1 1356 3 view .LVU678
 1969              		.loc 1 1356 14 is_stmt 0 view .LVU679
ARM GAS  /tmp/ccLdxC59.s 			page 68


 1970 0000 494A     		ldr	r2, .L205
 1971 0002 1369     		ldr	r3, [r2, #16]
 1972              		.loc 1 1356 21 view .LVU680
 1973 0004 03F03803 		and	r3, r3, #56
 1974              		.loc 1 1356 3 view .LVU681
 1975 0008 102B     		cmp	r3, #16
 1976 000a 04D0     		beq	.L193
 1977 000c 182B     		cmp	r3, #24
 1978 000e 0DD0     		beq	.L187
 1979 0010 1BB1     		cbz	r3, .L203
1357:Drivers/STM32H7xx_HAL_Driver/Src/stm32h7xx_hal_rcc.c ****   {
1358:Drivers/STM32H7xx_HAL_Driver/Src/stm32h7xx_hal_rcc.c ****   case RCC_CFGR_SWS_HSI:  /* HSI used as system clock source */
1359:Drivers/STM32H7xx_HAL_Driver/Src/stm32h7xx_hal_rcc.c **** 
1360:Drivers/STM32H7xx_HAL_Driver/Src/stm32h7xx_hal_rcc.c ****    if (__HAL_RCC_GET_FLAG(RCC_FLAG_HSIDIV) != 0U)
1361:Drivers/STM32H7xx_HAL_Driver/Src/stm32h7xx_hal_rcc.c ****       {
1362:Drivers/STM32H7xx_HAL_Driver/Src/stm32h7xx_hal_rcc.c ****         sysclockfreq = (uint32_t) (HSI_VALUE >> (__HAL_RCC_GET_HSI_DIVIDER()>> 3));
1363:Drivers/STM32H7xx_HAL_Driver/Src/stm32h7xx_hal_rcc.c ****       }
1364:Drivers/STM32H7xx_HAL_Driver/Src/stm32h7xx_hal_rcc.c ****       else
1365:Drivers/STM32H7xx_HAL_Driver/Src/stm32h7xx_hal_rcc.c ****       {
1366:Drivers/STM32H7xx_HAL_Driver/Src/stm32h7xx_hal_rcc.c ****         sysclockfreq = (uint32_t) HSI_VALUE;
1367:Drivers/STM32H7xx_HAL_Driver/Src/stm32h7xx_hal_rcc.c ****       }
1368:Drivers/STM32H7xx_HAL_Driver/Src/stm32h7xx_hal_rcc.c **** 
1369:Drivers/STM32H7xx_HAL_Driver/Src/stm32h7xx_hal_rcc.c ****     break;
1370:Drivers/STM32H7xx_HAL_Driver/Src/stm32h7xx_hal_rcc.c **** 
1371:Drivers/STM32H7xx_HAL_Driver/Src/stm32h7xx_hal_rcc.c ****   case RCC_CFGR_SWS_CSI:  /* CSI used as system clock  source */
1372:Drivers/STM32H7xx_HAL_Driver/Src/stm32h7xx_hal_rcc.c ****     sysclockfreq = CSI_VALUE;
 1980              		.loc 1 1372 18 view .LVU682
 1981 0012 4648     		ldr	r0, .L205+4
 1982 0014 7047     		bx	lr
 1983              	.L193:
1356:Drivers/STM32H7xx_HAL_Driver/Src/stm32h7xx_hal_rcc.c ****   {
 1984              		.loc 1 1356 3 view .LVU683
 1985 0016 4648     		ldr	r0, .L205+8
 1986 0018 7047     		bx	lr
 1987              	.L203:
1360:Drivers/STM32H7xx_HAL_Driver/Src/stm32h7xx_hal_rcc.c ****       {
 1988              		.loc 1 1360 4 is_stmt 1 view .LVU684
1360:Drivers/STM32H7xx_HAL_Driver/Src/stm32h7xx_hal_rcc.c ****       {
 1989              		.loc 1 1360 8 is_stmt 0 view .LVU685
 1990 001a 1368     		ldr	r3, [r2]
1360:Drivers/STM32H7xx_HAL_Driver/Src/stm32h7xx_hal_rcc.c ****       {
 1991              		.loc 1 1360 7 view .LVU686
 1992 001c 9906     		lsls	r1, r3, #26
 1993 001e 4CD5     		bpl	.L195
1362:Drivers/STM32H7xx_HAL_Driver/Src/stm32h7xx_hal_rcc.c ****       }
 1994              		.loc 1 1362 9 is_stmt 1 view .LVU687
1362:Drivers/STM32H7xx_HAL_Driver/Src/stm32h7xx_hal_rcc.c ****       }
 1995              		.loc 1 1362 50 is_stmt 0 view .LVU688
 1996 0020 1368     		ldr	r3, [r2]
1362:Drivers/STM32H7xx_HAL_Driver/Src/stm32h7xx_hal_rcc.c ****       }
 1997              		.loc 1 1362 22 view .LVU689
 1998 0022 4448     		ldr	r0, .L205+12
1362:Drivers/STM32H7xx_HAL_Driver/Src/stm32h7xx_hal_rcc.c ****       }
 1999              		.loc 1 1362 77 view .LVU690
 2000 0024 C3F3C103 		ubfx	r3, r3, #3, #2
1362:Drivers/STM32H7xx_HAL_Driver/Src/stm32h7xx_hal_rcc.c ****       }
 2001              		.loc 1 1362 22 view .LVU691
ARM GAS  /tmp/ccLdxC59.s 			page 69


 2002 0028 D840     		lsrs	r0, r0, r3
 2003              	.LVL156:
1362:Drivers/STM32H7xx_HAL_Driver/Src/stm32h7xx_hal_rcc.c ****       }
 2004              		.loc 1 1362 22 view .LVU692
 2005 002a 7047     		bx	lr
 2006              	.LVL157:
 2007              	.L187:
 2008              	.LBB31:
 2009              	.LBI31:
1348:Drivers/STM32H7xx_HAL_Driver/Src/stm32h7xx_hal_rcc.c **** {
 2010              		.loc 1 1348 10 is_stmt 1 view .LVU693
 2011              	.LBB32:
1373:Drivers/STM32H7xx_HAL_Driver/Src/stm32h7xx_hal_rcc.c ****     break;
1374:Drivers/STM32H7xx_HAL_Driver/Src/stm32h7xx_hal_rcc.c **** 
1375:Drivers/STM32H7xx_HAL_Driver/Src/stm32h7xx_hal_rcc.c ****   case RCC_CFGR_SWS_HSE:  /* HSE used as system clock  source */
1376:Drivers/STM32H7xx_HAL_Driver/Src/stm32h7xx_hal_rcc.c ****     sysclockfreq = HSE_VALUE;
1377:Drivers/STM32H7xx_HAL_Driver/Src/stm32h7xx_hal_rcc.c ****     break;
1378:Drivers/STM32H7xx_HAL_Driver/Src/stm32h7xx_hal_rcc.c **** 
1379:Drivers/STM32H7xx_HAL_Driver/Src/stm32h7xx_hal_rcc.c ****   case RCC_CFGR_SWS_PLL1:  /* PLL1 used as system clock  source */
1380:Drivers/STM32H7xx_HAL_Driver/Src/stm32h7xx_hal_rcc.c **** 
1381:Drivers/STM32H7xx_HAL_Driver/Src/stm32h7xx_hal_rcc.c ****     /* PLL_VCO = (HSE_VALUE or HSI_VALUE or CSI_VALUE/ PLLM) * PLLN
1382:Drivers/STM32H7xx_HAL_Driver/Src/stm32h7xx_hal_rcc.c ****     SYSCLK = PLL_VCO / PLLR
1383:Drivers/STM32H7xx_HAL_Driver/Src/stm32h7xx_hal_rcc.c ****     */
1384:Drivers/STM32H7xx_HAL_Driver/Src/stm32h7xx_hal_rcc.c ****     pllsource = (RCC->PLLCKSELR & RCC_PLLCKSELR_PLLSRC);
 2012              		.loc 1 1384 5 view .LVU694
 2013              		.loc 1 1384 21 is_stmt 0 view .LVU695
 2014 002c 916A     		ldr	r1, [r2, #40]
 2015              	.LVL158:
1385:Drivers/STM32H7xx_HAL_Driver/Src/stm32h7xx_hal_rcc.c ****     pllm = ((RCC->PLLCKSELR & RCC_PLLCKSELR_DIVM1)>> 4)  ;
 2016              		.loc 1 1385 5 is_stmt 1 view .LVU696
 2017              	.LBE32:
 2018              	.LBE31:
1349:Drivers/STM32H7xx_HAL_Driver/Src/stm32h7xx_hal_rcc.c ****   uint32_t pllp, pllsource, pllm, pllfracen, hsivalue;
 2019              		.loc 1 1349 1 is_stmt 0 view .LVU697
 2020 002e 30B4     		push	{r4, r5}
 2021              	.LCFI9:
 2022              		.cfi_def_cfa_offset 8
 2023              		.cfi_offset 4, -8
 2024              		.cfi_offset 5, -4
 2025              	.LBB35:
 2026              	.LBB33:
 2027              		.loc 1 1385 17 view .LVU698
 2028 0030 946A     		ldr	r4, [r2, #40]
1386:Drivers/STM32H7xx_HAL_Driver/Src/stm32h7xx_hal_rcc.c ****     pllfracen = ((RCC-> PLLCFGR & RCC_PLLCFGR_PLL1FRACEN)>>RCC_PLLCFGR_PLL1FRACEN_Pos);
 2029              		.loc 1 1386 22 view .LVU699
 2030 0032 D36A     		ldr	r3, [r2, #44]
1387:Drivers/STM32H7xx_HAL_Driver/Src/stm32h7xx_hal_rcc.c ****     fracn1 = (float_t)(uint32_t)(pllfracen* ((RCC->PLL1FRACR & RCC_PLL1FRACR_FRACN1)>> 3));
1388:Drivers/STM32H7xx_HAL_Driver/Src/stm32h7xx_hal_rcc.c **** 
1389:Drivers/STM32H7xx_HAL_Driver/Src/stm32h7xx_hal_rcc.c ****     if (pllm != 0U)
 2031              		.loc 1 1389 8 view .LVU700
 2032 0034 14F47C7F 		tst	r4, #1008
1385:Drivers/STM32H7xx_HAL_Driver/Src/stm32h7xx_hal_rcc.c ****     pllfracen = ((RCC-> PLLCFGR & RCC_PLLCFGR_PLL1FRACEN)>>RCC_PLLCFGR_PLL1FRACEN_Pos);
 2033              		.loc 1 1385 10 view .LVU701
 2034 0038 C4F30510 		ubfx	r0, r4, #4, #6
 2035              	.LVL159:
1386:Drivers/STM32H7xx_HAL_Driver/Src/stm32h7xx_hal_rcc.c ****     pllfracen = ((RCC-> PLLCFGR & RCC_PLLCFGR_PLL1FRACEN)>>RCC_PLLCFGR_PLL1FRACEN_Pos);
 2036              		.loc 1 1386 5 is_stmt 1 view .LVU702
ARM GAS  /tmp/ccLdxC59.s 			page 70


1387:Drivers/STM32H7xx_HAL_Driver/Src/stm32h7xx_hal_rcc.c ****     fracn1 = (float_t)(uint32_t)(pllfracen* ((RCC->PLL1FRACR & RCC_PLL1FRACR_FRACN1)>> 3));
 2037              		.loc 1 1387 5 view .LVU703
1387:Drivers/STM32H7xx_HAL_Driver/Src/stm32h7xx_hal_rcc.c ****     fracn1 = (float_t)(uint32_t)(pllfracen* ((RCC->PLL1FRACR & RCC_PLL1FRACR_FRACN1)>> 3));
 2038              		.loc 1 1387 50 is_stmt 0 view .LVU704
 2039 003c 556B     		ldr	r5, [r2, #52]
 2040              	.LVL160:
 2041              		.loc 1 1389 5 is_stmt 1 view .LVU705
 2042              		.loc 1 1389 8 is_stmt 0 view .LVU706
 2043 003e 3AD0     		beq	.L185
1387:Drivers/STM32H7xx_HAL_Driver/Src/stm32h7xx_hal_rcc.c ****     fracn1 = (float_t)(uint32_t)(pllfracen* ((RCC->PLL1FRACR & RCC_PLL1FRACR_FRACN1)>> 3));
 2044              		.loc 1 1387 85 view .LVU707
 2045 0040 C5F3CC05 		ubfx	r5, r5, #3, #13
 2046              	.LVL161:
1386:Drivers/STM32H7xx_HAL_Driver/Src/stm32h7xx_hal_rcc.c ****     pllfracen = ((RCC-> PLLCFGR & RCC_PLLCFGR_PLL1FRACEN)>>RCC_PLLCFGR_PLL1FRACEN_Pos);
 2047              		.loc 1 1386 15 view .LVU708
 2048 0044 03F00103 		and	r3, r3, #1
 2049              	.LVL162:
1384:Drivers/STM32H7xx_HAL_Driver/Src/stm32h7xx_hal_rcc.c ****     pllm = ((RCC->PLLCKSELR & RCC_PLLCKSELR_DIVM1)>> 4)  ;
 2050              		.loc 1 1384 15 view .LVU709
 2051 0048 01F00301 		and	r1, r1, #3
 2052              	.LVL163:
1387:Drivers/STM32H7xx_HAL_Driver/Src/stm32h7xx_hal_rcc.c ****     fracn1 = (float_t)(uint32_t)(pllfracen* ((RCC->PLL1FRACR & RCC_PLL1FRACR_FRACN1)>> 3));
 2053              		.loc 1 1387 23 view .LVU710
 2054 004c 03FB05F3 		mul	r3, r3, r5
 2055              	.LVL164:
1387:Drivers/STM32H7xx_HAL_Driver/Src/stm32h7xx_hal_rcc.c ****     fracn1 = (float_t)(uint32_t)(pllfracen* ((RCC->PLL1FRACR & RCC_PLL1FRACR_FRACN1)>> 3));
 2056              		.loc 1 1387 23 view .LVU711
 2057 0050 0129     		cmp	r1, #1
1387:Drivers/STM32H7xx_HAL_Driver/Src/stm32h7xx_hal_rcc.c ****     fracn1 = (float_t)(uint32_t)(pllfracen* ((RCC->PLL1FRACR & RCC_PLL1FRACR_FRACN1)>> 3));
 2058              		.loc 1 1387 12 view .LVU712
 2059 0052 07EE903A 		vmov	s15, r3	@ int
 2060 0056 B8EEE77A 		vcvt.f32.s32	s14, s15
1390:Drivers/STM32H7xx_HAL_Driver/Src/stm32h7xx_hal_rcc.c ****     {
1391:Drivers/STM32H7xx_HAL_Driver/Src/stm32h7xx_hal_rcc.c ****       switch (pllsource)
 2061              		.loc 1 1391 7 is_stmt 1 view .LVU713
 2062 005a 02D0     		beq	.L190
 2063 005c 0229     		cmp	r1, #2
 2064 005e 2ED0     		beq	.L189
 2065 0060 A1B3     		cbz	r1, .L204
 2066              	.L190:
1392:Drivers/STM32H7xx_HAL_Driver/Src/stm32h7xx_hal_rcc.c ****       {
1393:Drivers/STM32H7xx_HAL_Driver/Src/stm32h7xx_hal_rcc.c ****       case RCC_PLLSOURCE_HSI:  /* HSI used as PLL clock source */
1394:Drivers/STM32H7xx_HAL_Driver/Src/stm32h7xx_hal_rcc.c **** 
1395:Drivers/STM32H7xx_HAL_Driver/Src/stm32h7xx_hal_rcc.c ****        if (__HAL_RCC_GET_FLAG(RCC_FLAG_HSIDIV) != 0U)
1396:Drivers/STM32H7xx_HAL_Driver/Src/stm32h7xx_hal_rcc.c ****         {
1397:Drivers/STM32H7xx_HAL_Driver/Src/stm32h7xx_hal_rcc.c ****           hsivalue= (HSI_VALUE >> (__HAL_RCC_GET_HSI_DIVIDER()>> 3));
1398:Drivers/STM32H7xx_HAL_Driver/Src/stm32h7xx_hal_rcc.c ****           pllvco = ( (float_t)hsivalue / (float_t)pllm) * ((float_t)(uint32_t)(RCC->PLL1DIVR & RCC_
1399:Drivers/STM32H7xx_HAL_Driver/Src/stm32h7xx_hal_rcc.c ****         }
1400:Drivers/STM32H7xx_HAL_Driver/Src/stm32h7xx_hal_rcc.c ****         else
1401:Drivers/STM32H7xx_HAL_Driver/Src/stm32h7xx_hal_rcc.c ****         {
1402:Drivers/STM32H7xx_HAL_Driver/Src/stm32h7xx_hal_rcc.c ****           pllvco = ((float_t)HSI_VALUE / (float_t)pllm) * ((float_t)(uint32_t)(RCC->PLL1DIVR & RCC_
1403:Drivers/STM32H7xx_HAL_Driver/Src/stm32h7xx_hal_rcc.c ****         }
1404:Drivers/STM32H7xx_HAL_Driver/Src/stm32h7xx_hal_rcc.c ****         break;
1405:Drivers/STM32H7xx_HAL_Driver/Src/stm32h7xx_hal_rcc.c **** 
1406:Drivers/STM32H7xx_HAL_Driver/Src/stm32h7xx_hal_rcc.c ****       case RCC_PLLSOURCE_CSI:  /* CSI used as PLL clock source */
1407:Drivers/STM32H7xx_HAL_Driver/Src/stm32h7xx_hal_rcc.c ****         pllvco = ((float_t)CSI_VALUE / (float_t)pllm) * ((float_t)(uint32_t)(RCC->PLL1DIVR & RCC_PL
1408:Drivers/STM32H7xx_HAL_Driver/Src/stm32h7xx_hal_rcc.c ****         break;
ARM GAS  /tmp/ccLdxC59.s 			page 71


1409:Drivers/STM32H7xx_HAL_Driver/Src/stm32h7xx_hal_rcc.c **** 
1410:Drivers/STM32H7xx_HAL_Driver/Src/stm32h7xx_hal_rcc.c ****       case RCC_PLLSOURCE_HSE:  /* HSE used as PLL clock source */
1411:Drivers/STM32H7xx_HAL_Driver/Src/stm32h7xx_hal_rcc.c ****         pllvco = ((float_t)HSE_VALUE / (float_t)pllm) * ((float_t)(uint32_t)(RCC->PLL1DIVR & RCC_PL
1412:Drivers/STM32H7xx_HAL_Driver/Src/stm32h7xx_hal_rcc.c ****         break;
1413:Drivers/STM32H7xx_HAL_Driver/Src/stm32h7xx_hal_rcc.c **** 
1414:Drivers/STM32H7xx_HAL_Driver/Src/stm32h7xx_hal_rcc.c ****       default:
1415:Drivers/STM32H7xx_HAL_Driver/Src/stm32h7xx_hal_rcc.c ****         pllvco = ((float_t)CSI_VALUE / (float_t)pllm) * ((float_t)(uint32_t)(RCC->PLL1DIVR & RCC_PL
 2067              		.loc 1 1415 9 view .LVU714
 2068              		.loc 1 1415 40 is_stmt 0 view .LVU715
 2069 0062 07EE900A 		vmov	s15, r0	@ int
 2070              		.loc 1 1415 38 view .LVU716
 2071 0066 9FED345A 		vldr.32	s10, .L205+16
 2072              		.loc 1 1415 40 view .LVU717
 2073 006a F8EEE77A 		vcvt.f32.s32	s15, s15
 2074              	.L202:
 2075              		.loc 1 1415 38 view .LVU718
 2076 006e C5EE276A 		vdiv.f32	s13, s10, s15
 2077              		.loc 1 1415 81 view .LVU719
 2078 0072 136B     		ldr	r3, [r2, #48]
 2079              		.loc 1 1415 120 view .LVU720
 2080 0074 DFED315A 		vldr.32	s11, .L205+20
 2081              		.loc 1 1415 67 view .LVU721
 2082 0078 C3F30803 		ubfx	r3, r3, #0, #9
 2083              		.loc 1 1415 58 view .LVU722
 2084 007c 07EE903A 		vmov	s15, r3	@ int
 2085              		.loc 1 1415 120 view .LVU723
 2086 0080 27EE257A 		vmul.f32	s14, s14, s11
 2087              		.loc 1 1415 58 view .LVU724
 2088 0084 F8EEE77A 		vcvt.f32.s32	s15, s15
 2089              		.loc 1 1415 138 view .LVU725
 2090 0088 B7EE006A 		vmov.f32	s12, #1.0e+0
 2091              		.loc 1 1415 111 view .LVU726
 2092 008c 37EE877A 		vadd.f32	s14, s15, s14
 2093              		.loc 1 1415 138 view .LVU727
 2094 0090 37EE067A 		vadd.f32	s14, s14, s12
 2095              		.loc 1 1415 16 view .LVU728
 2096 0094 27EE267A 		vmul.f32	s14, s14, s13
 2097              	.LVL165:
1416:Drivers/STM32H7xx_HAL_Driver/Src/stm32h7xx_hal_rcc.c ****         break;
 2098              		.loc 1 1416 9 is_stmt 1 view .LVU729
 2099              	.L192:
1417:Drivers/STM32H7xx_HAL_Driver/Src/stm32h7xx_hal_rcc.c ****       }
1418:Drivers/STM32H7xx_HAL_Driver/Src/stm32h7xx_hal_rcc.c ****       pllp = (((RCC->PLL1DIVR & RCC_PLL1DIVR_P1) >>9) + 1U ) ;
 2100              		.loc 1 1418 7 view .LVU730
 2101              		.loc 1 1418 20 is_stmt 0 view .LVU731
 2102 0098 234B     		ldr	r3, .L205
 2103 009a 1B6B     		ldr	r3, [r3, #48]
 2104              	.LVL166:
1419:Drivers/STM32H7xx_HAL_Driver/Src/stm32h7xx_hal_rcc.c ****       sysclockfreq =  (uint32_t)(float_t)(pllvco/(float_t)pllp);
 2105              		.loc 1 1419 7 is_stmt 1 view .LVU732
1418:Drivers/STM32H7xx_HAL_Driver/Src/stm32h7xx_hal_rcc.c ****       sysclockfreq =  (uint32_t)(float_t)(pllvco/(float_t)pllp);
 2106              		.loc 1 1418 50 is_stmt 0 view .LVU733
 2107 009c C3F34623 		ubfx	r3, r3, #9, #7
 2108              	.LVL167:
1418:Drivers/STM32H7xx_HAL_Driver/Src/stm32h7xx_hal_rcc.c ****       sysclockfreq =  (uint32_t)(float_t)(pllvco/(float_t)pllp);
 2109              		.loc 1 1418 12 view .LVU734
 2110 00a0 0133     		adds	r3, r3, #1
ARM GAS  /tmp/ccLdxC59.s 			page 72


 2111              		.loc 1 1419 50 view .LVU735
 2112 00a2 07EE903A 		vmov	s15, r3	@ int
 2113 00a6 F8EEE76A 		vcvt.f32.s32	s13, s15
 2114              		.loc 1 1419 33 view .LVU736
 2115 00aa C7EE267A 		vdiv.f32	s15, s14, s13
 2116              		.loc 1 1419 20 view .LVU737
 2117 00ae FCEEE77A 		vcvt.u32.f32	s15, s15
 2118 00b2 17EE900A 		vmov	r0, s15	@ int
 2119              	.LVL168:
 2120              	.L185:
 2121              		.loc 1 1419 20 view .LVU738
 2122              	.LBE33:
 2123              	.LBE35:
1420:Drivers/STM32H7xx_HAL_Driver/Src/stm32h7xx_hal_rcc.c ****     }
1421:Drivers/STM32H7xx_HAL_Driver/Src/stm32h7xx_hal_rcc.c ****     else
1422:Drivers/STM32H7xx_HAL_Driver/Src/stm32h7xx_hal_rcc.c ****     {
1423:Drivers/STM32H7xx_HAL_Driver/Src/stm32h7xx_hal_rcc.c ****       sysclockfreq = 0U;
1424:Drivers/STM32H7xx_HAL_Driver/Src/stm32h7xx_hal_rcc.c ****     }
1425:Drivers/STM32H7xx_HAL_Driver/Src/stm32h7xx_hal_rcc.c ****     break;
1426:Drivers/STM32H7xx_HAL_Driver/Src/stm32h7xx_hal_rcc.c **** 
1427:Drivers/STM32H7xx_HAL_Driver/Src/stm32h7xx_hal_rcc.c ****   default:
1428:Drivers/STM32H7xx_HAL_Driver/Src/stm32h7xx_hal_rcc.c ****     sysclockfreq = CSI_VALUE;
1429:Drivers/STM32H7xx_HAL_Driver/Src/stm32h7xx_hal_rcc.c ****     break;
1430:Drivers/STM32H7xx_HAL_Driver/Src/stm32h7xx_hal_rcc.c ****   }
1431:Drivers/STM32H7xx_HAL_Driver/Src/stm32h7xx_hal_rcc.c **** 
1432:Drivers/STM32H7xx_HAL_Driver/Src/stm32h7xx_hal_rcc.c ****   return sysclockfreq;
1433:Drivers/STM32H7xx_HAL_Driver/Src/stm32h7xx_hal_rcc.c **** }
 2124              		.loc 1 1433 1 view .LVU739
 2125 00b6 30BC     		pop	{r4, r5}
 2126              	.LCFI10:
 2127              		.cfi_restore 5
 2128              		.cfi_restore 4
 2129              		.cfi_def_cfa_offset 0
 2130              	.LVL169:
 2131              		.loc 1 1433 1 view .LVU740
 2132 00b8 7047     		bx	lr
 2133              	.L195:
1366:Drivers/STM32H7xx_HAL_Driver/Src/stm32h7xx_hal_rcc.c ****       }
 2134              		.loc 1 1366 22 view .LVU741
 2135 00ba 1E48     		ldr	r0, .L205+12
 2136              	.LVL170:
1432:Drivers/STM32H7xx_HAL_Driver/Src/stm32h7xx_hal_rcc.c **** }
 2137              		.loc 1 1432 3 is_stmt 1 view .LVU742
 2138              		.loc 1 1433 1 is_stmt 0 view .LVU743
 2139 00bc 7047     		bx	lr
 2140              	.LVL171:
 2141              	.L189:
 2142              	.LCFI11:
 2143              		.cfi_def_cfa_offset 8
 2144              		.cfi_offset 4, -8
 2145              		.cfi_offset 5, -4
 2146              	.LBB36:
 2147              	.LBB34:
1411:Drivers/STM32H7xx_HAL_Driver/Src/stm32h7xx_hal_rcc.c ****         break;
 2148              		.loc 1 1411 9 is_stmt 1 view .LVU744
1411:Drivers/STM32H7xx_HAL_Driver/Src/stm32h7xx_hal_rcc.c ****         break;
 2149              		.loc 1 1411 40 is_stmt 0 view .LVU745
ARM GAS  /tmp/ccLdxC59.s 			page 73


 2150 00be 07EE900A 		vmov	s15, r0	@ int
1411:Drivers/STM32H7xx_HAL_Driver/Src/stm32h7xx_hal_rcc.c ****         break;
 2151              		.loc 1 1411 38 view .LVU746
 2152 00c2 9FED1F5A 		vldr.32	s10, .L205+24
1411:Drivers/STM32H7xx_HAL_Driver/Src/stm32h7xx_hal_rcc.c ****         break;
 2153              		.loc 1 1411 40 view .LVU747
 2154 00c6 F8EEE77A 		vcvt.f32.s32	s15, s15
 2155 00ca D0E7     		b	.L202
 2156              	.L204:
1395:Drivers/STM32H7xx_HAL_Driver/Src/stm32h7xx_hal_rcc.c ****         {
 2157              		.loc 1 1395 8 is_stmt 1 view .LVU748
1395:Drivers/STM32H7xx_HAL_Driver/Src/stm32h7xx_hal_rcc.c ****         {
 2158              		.loc 1 1395 12 is_stmt 0 view .LVU749
 2159 00cc 1368     		ldr	r3, [r2]
1395:Drivers/STM32H7xx_HAL_Driver/Src/stm32h7xx_hal_rcc.c ****         {
 2160              		.loc 1 1395 11 view .LVU750
 2161 00ce 9B06     		lsls	r3, r3, #26
 2162 00d0 22D5     		bpl	.L191
1397:Drivers/STM32H7xx_HAL_Driver/Src/stm32h7xx_hal_rcc.c ****           pllvco = ( (float_t)hsivalue / (float_t)pllm) * ((float_t)(uint32_t)(RCC->PLL1DIVR & RCC_
 2163              		.loc 1 1397 11 is_stmt 1 view .LVU751
1397:Drivers/STM32H7xx_HAL_Driver/Src/stm32h7xx_hal_rcc.c ****           pllvco = ( (float_t)hsivalue / (float_t)pllm) * ((float_t)(uint32_t)(RCC->PLL1DIVR & RCC_
 2164              		.loc 1 1397 36 is_stmt 0 view .LVU752
 2165 00d2 1368     		ldr	r3, [r2]
 2166              	.LVL172:
1398:Drivers/STM32H7xx_HAL_Driver/Src/stm32h7xx_hal_rcc.c ****         }
 2167              		.loc 1 1398 11 is_stmt 1 view .LVU753
1398:Drivers/STM32H7xx_HAL_Driver/Src/stm32h7xx_hal_rcc.c ****         }
 2168              		.loc 1 1398 42 is_stmt 0 view .LVU754
 2169 00d4 07EE900A 		vmov	s15, r0	@ int
1397:Drivers/STM32H7xx_HAL_Driver/Src/stm32h7xx_hal_rcc.c ****           pllvco = ( (float_t)hsivalue / (float_t)pllm) * ((float_t)(uint32_t)(RCC->PLL1DIVR & RCC_
 2170              		.loc 1 1397 19 view .LVU755
 2171 00d8 1649     		ldr	r1, .L205+12
 2172              	.LVL173:
1398:Drivers/STM32H7xx_HAL_Driver/Src/stm32h7xx_hal_rcc.c ****         }
 2173              		.loc 1 1398 140 view .LVU756
 2174 00da B7EE005A 		vmov.f32	s10, #1.0e+0
1397:Drivers/STM32H7xx_HAL_Driver/Src/stm32h7xx_hal_rcc.c ****           pllvco = ( (float_t)hsivalue / (float_t)pllm) * ((float_t)(uint32_t)(RCC->PLL1DIVR & RCC_
 2175              		.loc 1 1397 63 view .LVU757
 2176 00de C3F3C100 		ubfx	r0, r3, #3, #2
 2177              	.LVL174:
1398:Drivers/STM32H7xx_HAL_Driver/Src/stm32h7xx_hal_rcc.c ****         }
 2178              		.loc 1 1398 122 view .LVU758
 2179 00e2 DFED166A 		vldr.32	s13, .L205+20
1398:Drivers/STM32H7xx_HAL_Driver/Src/stm32h7xx_hal_rcc.c ****         }
 2180              		.loc 1 1398 83 view .LVU759
 2181 00e6 136B     		ldr	r3, [r2, #48]
 2182              	.LVL175:
1398:Drivers/STM32H7xx_HAL_Driver/Src/stm32h7xx_hal_rcc.c ****         }
 2183              		.loc 1 1398 42 view .LVU760
 2184 00e8 F8EEE77A 		vcvt.f32.s32	s15, s15
 2185              	.LVL176:
1397:Drivers/STM32H7xx_HAL_Driver/Src/stm32h7xx_hal_rcc.c ****           pllvco = ( (float_t)hsivalue / (float_t)pllm) * ((float_t)(uint32_t)(RCC->PLL1DIVR & RCC_
 2186              		.loc 1 1397 19 view .LVU761
 2187 00ec C140     		lsrs	r1, r1, r0
1398:Drivers/STM32H7xx_HAL_Driver/Src/stm32h7xx_hal_rcc.c ****         }
 2188              		.loc 1 1398 122 view .LVU762
 2189 00ee 27EE267A 		vmul.f32	s14, s14, s13
ARM GAS  /tmp/ccLdxC59.s 			page 74


1398:Drivers/STM32H7xx_HAL_Driver/Src/stm32h7xx_hal_rcc.c ****         }
 2190              		.loc 1 1398 69 view .LVU763
 2191 00f2 C3F30803 		ubfx	r3, r3, #0, #9
1398:Drivers/STM32H7xx_HAL_Driver/Src/stm32h7xx_hal_rcc.c ****         }
 2192              		.loc 1 1398 22 view .LVU764
 2193 00f6 06EE901A 		vmov	s13, r1	@ int
 2194 00fa F8EEE65A 		vcvt.f32.s32	s11, s13
1398:Drivers/STM32H7xx_HAL_Driver/Src/stm32h7xx_hal_rcc.c ****         }
 2195              		.loc 1 1398 60 view .LVU765
 2196 00fe 06EE903A 		vmov	s13, r3	@ int
 2197 0102 B8EEE66A 		vcvt.f32.s32	s12, s13
1398:Drivers/STM32H7xx_HAL_Driver/Src/stm32h7xx_hal_rcc.c ****         }
 2198              		.loc 1 1398 40 view .LVU766
 2199 0106 C5EEA76A 		vdiv.f32	s13, s11, s15
1398:Drivers/STM32H7xx_HAL_Driver/Src/stm32h7xx_hal_rcc.c ****         }
 2200              		.loc 1 1398 113 view .LVU767
 2201 010a 36EE077A 		vadd.f32	s14, s12, s14
1398:Drivers/STM32H7xx_HAL_Driver/Src/stm32h7xx_hal_rcc.c ****         }
 2202              		.loc 1 1398 140 view .LVU768
 2203 010e 37EE057A 		vadd.f32	s14, s14, s10
1398:Drivers/STM32H7xx_HAL_Driver/Src/stm32h7xx_hal_rcc.c ****         }
 2204              		.loc 1 1398 18 view .LVU769
 2205 0112 26EE877A 		vmul.f32	s14, s13, s14
 2206              	.LVL177:
1398:Drivers/STM32H7xx_HAL_Driver/Src/stm32h7xx_hal_rcc.c ****         }
 2207              		.loc 1 1398 18 view .LVU770
 2208 0116 BFE7     		b	.L192
 2209              	.LVL178:
 2210              	.L191:
1402:Drivers/STM32H7xx_HAL_Driver/Src/stm32h7xx_hal_rcc.c ****         }
 2211              		.loc 1 1402 11 is_stmt 1 view .LVU771
1402:Drivers/STM32H7xx_HAL_Driver/Src/stm32h7xx_hal_rcc.c ****         }
 2212              		.loc 1 1402 42 is_stmt 0 view .LVU772
 2213 0118 07EE900A 		vmov	s15, r0	@ int
1402:Drivers/STM32H7xx_HAL_Driver/Src/stm32h7xx_hal_rcc.c ****         }
 2214              		.loc 1 1402 40 view .LVU773
 2215 011c 9FED095A 		vldr.32	s10, .L205+28
1402:Drivers/STM32H7xx_HAL_Driver/Src/stm32h7xx_hal_rcc.c ****         }
 2216              		.loc 1 1402 42 view .LVU774
 2217 0120 F8EEE77A 		vcvt.f32.s32	s15, s15
 2218 0124 A3E7     		b	.L202
 2219              	.L206:
 2220 0126 00BF     		.align	2
 2221              	.L205:
 2222 0128 00440258 		.word	1476543488
 2223 012c 00093D00 		.word	4000000
 2224 0130 40787D01 		.word	25000000
 2225 0134 0090D003 		.word	64000000
 2226 0138 0024744A 		.word	1249125376
 2227 013c 00000039 		.word	956301312
 2228 0140 20BCBE4B 		.word	1270791200
 2229 0144 0024744C 		.word	1282679808
 2230              	.LBE34:
 2231              	.LBE36:
 2232              		.cfi_endproc
 2233              	.LFE147:
 2235              		.section	.text.HAL_RCC_ClockConfig,"ax",%progbits
ARM GAS  /tmp/ccLdxC59.s 			page 75


 2236              		.align	1
 2237              		.p2align 2,,3
 2238              		.global	HAL_RCC_ClockConfig
 2239              		.syntax unified
 2240              		.thumb
 2241              		.thumb_func
 2242              		.fpu fpv5-d16
 2244              	HAL_RCC_ClockConfig:
 2245              	.LVL179:
 2246              	.LFB143:
 883:Drivers/STM32H7xx_HAL_Driver/Src/stm32h7xx_hal_rcc.c ****   HAL_StatusTypeDef halstatus;
 2247              		.loc 1 883 1 is_stmt 1 view -0
 2248              		.cfi_startproc
 2249              		@ args = 0, pretend = 0, frame = 0
 2250              		@ frame_needed = 0, uses_anonymous_args = 0
 884:Drivers/STM32H7xx_HAL_Driver/Src/stm32h7xx_hal_rcc.c ****   uint32_t tickstart;
 2251              		.loc 1 884 3 view .LVU776
 885:Drivers/STM32H7xx_HAL_Driver/Src/stm32h7xx_hal_rcc.c ****   uint32_t common_system_clock;
 2252              		.loc 1 885 3 view .LVU777
 886:Drivers/STM32H7xx_HAL_Driver/Src/stm32h7xx_hal_rcc.c **** 
 2253              		.loc 1 886 3 view .LVU778
 889:Drivers/STM32H7xx_HAL_Driver/Src/stm32h7xx_hal_rcc.c ****   {
 2254              		.loc 1 889 3 view .LVU779
 889:Drivers/STM32H7xx_HAL_Driver/Src/stm32h7xx_hal_rcc.c ****   {
 2255              		.loc 1 889 5 is_stmt 0 view .LVU780
 2256 0000 0028     		cmp	r0, #0
 2257 0002 00F00E81 		beq	.L274
 903:Drivers/STM32H7xx_HAL_Driver/Src/stm32h7xx_hal_rcc.c ****   {
 2258              		.loc 1 903 17 view .LVU781
 2259 0006 8D4A     		ldr	r2, .L279
 2260 0008 1368     		ldr	r3, [r2]
 2261 000a 03F00F03 		and	r3, r3, #15
 903:Drivers/STM32H7xx_HAL_Driver/Src/stm32h7xx_hal_rcc.c ****   {
 2262              		.loc 1 903 5 view .LVU782
 2263 000e 8B42     		cmp	r3, r1
 883:Drivers/STM32H7xx_HAL_Driver/Src/stm32h7xx_hal_rcc.c ****   HAL_StatusTypeDef halstatus;
 2264              		.loc 1 883 1 view .LVU783
 2265 0010 2DE9F041 		push	{r4, r5, r6, r7, r8, lr}
 2266              	.LCFI12:
 2267              		.cfi_def_cfa_offset 24
 2268              		.cfi_offset 4, -24
 2269              		.cfi_offset 5, -20
 2270              		.cfi_offset 6, -16
 2271              		.cfi_offset 7, -12
 2272              		.cfi_offset 8, -8
 2273              		.cfi_offset 14, -4
 2274 0014 0446     		mov	r4, r0
 2275 0016 0D46     		mov	r5, r1
 895:Drivers/STM32H7xx_HAL_Driver/Src/stm32h7xx_hal_rcc.c ****   assert_param(IS_FLASH_LATENCY(FLatency));
 2276              		.loc 1 895 3 is_stmt 1 view .LVU784
 896:Drivers/STM32H7xx_HAL_Driver/Src/stm32h7xx_hal_rcc.c **** 
 2277              		.loc 1 896 3 view .LVU785
 903:Drivers/STM32H7xx_HAL_Driver/Src/stm32h7xx_hal_rcc.c ****   {
 2278              		.loc 1 903 3 view .LVU786
 903:Drivers/STM32H7xx_HAL_Driver/Src/stm32h7xx_hal_rcc.c ****   {
 2279              		.loc 1 903 5 is_stmt 0 view .LVU787
 2280 0018 0CD2     		bcs	.L214
ARM GAS  /tmp/ccLdxC59.s 			page 76


 906:Drivers/STM32H7xx_HAL_Driver/Src/stm32h7xx_hal_rcc.c **** 
 2281              		.loc 1 906 5 is_stmt 1 view .LVU788
 2282 001a 1368     		ldr	r3, [r2]
 2283 001c 23F00F03 		bic	r3, r3, #15
 2284 0020 0B43     		orrs	r3, r3, r1
 2285 0022 1360     		str	r3, [r2]
 910:Drivers/STM32H7xx_HAL_Driver/Src/stm32h7xx_hal_rcc.c ****     {
 2286              		.loc 1 910 5 view .LVU789
 910:Drivers/STM32H7xx_HAL_Driver/Src/stm32h7xx_hal_rcc.c ****     {
 2287              		.loc 1 910 8 is_stmt 0 view .LVU790
 2288 0024 1368     		ldr	r3, [r2]
 2289 0026 03F00F03 		and	r3, r3, #15
 910:Drivers/STM32H7xx_HAL_Driver/Src/stm32h7xx_hal_rcc.c ****     {
 2290              		.loc 1 910 7 view .LVU791
 2291 002a 8B42     		cmp	r3, r1
 2292 002c 02D0     		beq	.L214
 2293              	.LVL180:
 2294              	.L213:
 891:Drivers/STM32H7xx_HAL_Driver/Src/stm32h7xx_hal_rcc.c ****   }
 2295              		.loc 1 891 12 view .LVU792
 2296 002e 0120     		movs	r0, #1
 2297              	.L270:
1200:Drivers/STM32H7xx_HAL_Driver/Src/stm32h7xx_hal_rcc.c **** 
 2298              		.loc 1 1200 1 view .LVU793
 2299 0030 BDE8F081 		pop	{r4, r5, r6, r7, r8, pc}
 2300              	.LVL181:
 2301              	.L214:
 919:Drivers/STM32H7xx_HAL_Driver/Src/stm32h7xx_hal_rcc.c ****   {
 2302              		.loc 1 919 3 is_stmt 1 view .LVU794
 919:Drivers/STM32H7xx_HAL_Driver/Src/stm32h7xx_hal_rcc.c ****   {
 2303              		.loc 1 919 25 is_stmt 0 view .LVU795
 2304 0034 2368     		ldr	r3, [r4]
 919:Drivers/STM32H7xx_HAL_Driver/Src/stm32h7xx_hal_rcc.c ****   {
 2305              		.loc 1 919 5 view .LVU796
 2306 0036 5F07     		lsls	r7, r3, #29
 2307 0038 0BD5     		bpl	.L212
 922:Drivers/STM32H7xx_HAL_Driver/Src/stm32h7xx_hal_rcc.c ****     {
 2308              		.loc 1 922 5 is_stmt 1 view .LVU797
 922:Drivers/STM32H7xx_HAL_Driver/Src/stm32h7xx_hal_rcc.c ****     {
 2309              		.loc 1 922 50 is_stmt 0 view .LVU798
 2310 003a 8149     		ldr	r1, .L279+4
 2311              	.LVL182:
 922:Drivers/STM32H7xx_HAL_Driver/Src/stm32h7xx_hal_rcc.c ****     {
 2312              		.loc 1 922 26 view .LVU799
 2313 003c 2069     		ldr	r0, [r4, #16]
 2314              	.LVL183:
 922:Drivers/STM32H7xx_HAL_Driver/Src/stm32h7xx_hal_rcc.c ****     {
 2315              		.loc 1 922 50 view .LVU800
 2316 003e 8A69     		ldr	r2, [r1, #24]
 922:Drivers/STM32H7xx_HAL_Driver/Src/stm32h7xx_hal_rcc.c ****     {
 2317              		.loc 1 922 59 view .LVU801
 2318 0040 02F07002 		and	r2, r2, #112
 922:Drivers/STM32H7xx_HAL_Driver/Src/stm32h7xx_hal_rcc.c ****     {
 2319              		.loc 1 922 7 view .LVU802
 2320 0044 9042     		cmp	r0, r2
 2321 0046 04D9     		bls	.L212
 924:Drivers/STM32H7xx_HAL_Driver/Src/stm32h7xx_hal_rcc.c ****       MODIFY_REG(RCC->D1CFGR, RCC_D1CFGR_D1PPRE, RCC_ClkInitStruct->APB3CLKDivider);
ARM GAS  /tmp/ccLdxC59.s 			page 77


 2322              		.loc 1 924 7 is_stmt 1 view .LVU803
 925:Drivers/STM32H7xx_HAL_Driver/Src/stm32h7xx_hal_rcc.c ****     }
 2323              		.loc 1 925 7 view .LVU804
 2324 0048 8A69     		ldr	r2, [r1, #24]
 2325 004a 22F07002 		bic	r2, r2, #112
 2326 004e 0243     		orrs	r2, r2, r0
 2327 0050 8A61     		str	r2, [r1, #24]
 2328              	.L212:
 937:Drivers/STM32H7xx_HAL_Driver/Src/stm32h7xx_hal_rcc.c ****   {
 2329              		.loc 1 937 3 view .LVU805
 937:Drivers/STM32H7xx_HAL_Driver/Src/stm32h7xx_hal_rcc.c ****   {
 2330              		.loc 1 937 5 is_stmt 0 view .LVU806
 2331 0052 1E07     		lsls	r6, r3, #28
 2332 0054 0BD5     		bpl	.L215
 940:Drivers/STM32H7xx_HAL_Driver/Src/stm32h7xx_hal_rcc.c ****     {
 2333              		.loc 1 940 5 is_stmt 1 view .LVU807
 940:Drivers/STM32H7xx_HAL_Driver/Src/stm32h7xx_hal_rcc.c ****     {
 2334              		.loc 1 940 50 is_stmt 0 view .LVU808
 2335 0056 7A49     		ldr	r1, .L279+4
 940:Drivers/STM32H7xx_HAL_Driver/Src/stm32h7xx_hal_rcc.c ****     {
 2336              		.loc 1 940 26 view .LVU809
 2337 0058 6069     		ldr	r0, [r4, #20]
 940:Drivers/STM32H7xx_HAL_Driver/Src/stm32h7xx_hal_rcc.c ****     {
 2338              		.loc 1 940 50 view .LVU810
 2339 005a CA69     		ldr	r2, [r1, #28]
 940:Drivers/STM32H7xx_HAL_Driver/Src/stm32h7xx_hal_rcc.c ****     {
 2340              		.loc 1 940 59 view .LVU811
 2341 005c 02F07002 		and	r2, r2, #112
 940:Drivers/STM32H7xx_HAL_Driver/Src/stm32h7xx_hal_rcc.c ****     {
 2342              		.loc 1 940 7 view .LVU812
 2343 0060 9042     		cmp	r0, r2
 2344 0062 04D9     		bls	.L215
 942:Drivers/STM32H7xx_HAL_Driver/Src/stm32h7xx_hal_rcc.c ****       MODIFY_REG(RCC->D2CFGR, RCC_D2CFGR_D2PPRE1, (RCC_ClkInitStruct->APB1CLKDivider));
 2345              		.loc 1 942 7 is_stmt 1 view .LVU813
 943:Drivers/STM32H7xx_HAL_Driver/Src/stm32h7xx_hal_rcc.c ****     }
 2346              		.loc 1 943 7 view .LVU814
 2347 0064 CA69     		ldr	r2, [r1, #28]
 2348 0066 22F07002 		bic	r2, r2, #112
 2349 006a 0243     		orrs	r2, r2, r0
 2350 006c CA61     		str	r2, [r1, #28]
 2351              	.L215:
 954:Drivers/STM32H7xx_HAL_Driver/Src/stm32h7xx_hal_rcc.c ****   {
 2352              		.loc 1 954 3 view .LVU815
 954:Drivers/STM32H7xx_HAL_Driver/Src/stm32h7xx_hal_rcc.c ****   {
 2353              		.loc 1 954 5 is_stmt 0 view .LVU816
 2354 006e D806     		lsls	r0, r3, #27
 2355 0070 0BD5     		bpl	.L216
 957:Drivers/STM32H7xx_HAL_Driver/Src/stm32h7xx_hal_rcc.c ****     {
 2356              		.loc 1 957 5 is_stmt 1 view .LVU817
 957:Drivers/STM32H7xx_HAL_Driver/Src/stm32h7xx_hal_rcc.c ****     {
 2357              		.loc 1 957 50 is_stmt 0 view .LVU818
 2358 0072 7349     		ldr	r1, .L279+4
 957:Drivers/STM32H7xx_HAL_Driver/Src/stm32h7xx_hal_rcc.c ****     {
 2359              		.loc 1 957 26 view .LVU819
 2360 0074 A069     		ldr	r0, [r4, #24]
 957:Drivers/STM32H7xx_HAL_Driver/Src/stm32h7xx_hal_rcc.c ****     {
 2361              		.loc 1 957 50 view .LVU820
ARM GAS  /tmp/ccLdxC59.s 			page 78


 2362 0076 CA69     		ldr	r2, [r1, #28]
 957:Drivers/STM32H7xx_HAL_Driver/Src/stm32h7xx_hal_rcc.c ****     {
 2363              		.loc 1 957 59 view .LVU821
 2364 0078 02F4E062 		and	r2, r2, #1792
 957:Drivers/STM32H7xx_HAL_Driver/Src/stm32h7xx_hal_rcc.c ****     {
 2365              		.loc 1 957 7 view .LVU822
 2366 007c 9042     		cmp	r0, r2
 2367 007e 04D9     		bls	.L216
 959:Drivers/STM32H7xx_HAL_Driver/Src/stm32h7xx_hal_rcc.c ****       MODIFY_REG(RCC->D2CFGR, RCC_D2CFGR_D2PPRE2, (RCC_ClkInitStruct->APB2CLKDivider));
 2368              		.loc 1 959 7 is_stmt 1 view .LVU823
 960:Drivers/STM32H7xx_HAL_Driver/Src/stm32h7xx_hal_rcc.c ****     }
 2369              		.loc 1 960 7 view .LVU824
 2370 0080 CA69     		ldr	r2, [r1, #28]
 2371 0082 22F4E062 		bic	r2, r2, #1792
 2372 0086 0243     		orrs	r2, r2, r0
 2373 0088 CA61     		str	r2, [r1, #28]
 2374              	.L216:
 972:Drivers/STM32H7xx_HAL_Driver/Src/stm32h7xx_hal_rcc.c ****   {
 2375              		.loc 1 972 3 view .LVU825
 972:Drivers/STM32H7xx_HAL_Driver/Src/stm32h7xx_hal_rcc.c ****   {
 2376              		.loc 1 972 5 is_stmt 0 view .LVU826
 2377 008a 9906     		lsls	r1, r3, #26
 2378 008c 0BD5     		bpl	.L217
 975:Drivers/STM32H7xx_HAL_Driver/Src/stm32h7xx_hal_rcc.c ****     {
 2379              		.loc 1 975 5 is_stmt 1 view .LVU827
 975:Drivers/STM32H7xx_HAL_Driver/Src/stm32h7xx_hal_rcc.c ****     {
 2380              		.loc 1 975 50 is_stmt 0 view .LVU828
 2381 008e 6C49     		ldr	r1, .L279+4
 975:Drivers/STM32H7xx_HAL_Driver/Src/stm32h7xx_hal_rcc.c ****     {
 2382              		.loc 1 975 26 view .LVU829
 2383 0090 E069     		ldr	r0, [r4, #28]
 975:Drivers/STM32H7xx_HAL_Driver/Src/stm32h7xx_hal_rcc.c ****     {
 2384              		.loc 1 975 50 view .LVU830
 2385 0092 0A6A     		ldr	r2, [r1, #32]
 975:Drivers/STM32H7xx_HAL_Driver/Src/stm32h7xx_hal_rcc.c ****     {
 2386              		.loc 1 975 59 view .LVU831
 2387 0094 02F07002 		and	r2, r2, #112
 975:Drivers/STM32H7xx_HAL_Driver/Src/stm32h7xx_hal_rcc.c ****     {
 2388              		.loc 1 975 7 view .LVU832
 2389 0098 9042     		cmp	r0, r2
 2390 009a 04D9     		bls	.L217
 977:Drivers/STM32H7xx_HAL_Driver/Src/stm32h7xx_hal_rcc.c ****       MODIFY_REG(RCC->D3CFGR, RCC_D3CFGR_D3PPRE, (RCC_ClkInitStruct->APB4CLKDivider) );
 2391              		.loc 1 977 7 is_stmt 1 view .LVU833
 978:Drivers/STM32H7xx_HAL_Driver/Src/stm32h7xx_hal_rcc.c ****     }
 2392              		.loc 1 978 7 view .LVU834
 2393 009c 0A6A     		ldr	r2, [r1, #32]
 2394 009e 22F07002 		bic	r2, r2, #112
 2395 00a2 0243     		orrs	r2, r2, r0
 2396 00a4 0A62     		str	r2, [r1, #32]
 2397              	.L217:
 990:Drivers/STM32H7xx_HAL_Driver/Src/stm32h7xx_hal_rcc.c ****   {
 2398              		.loc 1 990 3 view .LVU835
 990:Drivers/STM32H7xx_HAL_Driver/Src/stm32h7xx_hal_rcc.c ****   {
 2399              		.loc 1 990 5 is_stmt 0 view .LVU836
 2400 00a6 9A07     		lsls	r2, r3, #30
 2401 00a8 40F1AD80 		bpl	.L218
 993:Drivers/STM32H7xx_HAL_Driver/Src/stm32h7xx_hal_rcc.c ****     {
ARM GAS  /tmp/ccLdxC59.s 			page 79


 2402              		.loc 1 993 5 is_stmt 1 view .LVU837
 993:Drivers/STM32H7xx_HAL_Driver/Src/stm32h7xx_hal_rcc.c ****     {
 2403              		.loc 1 993 49 is_stmt 0 view .LVU838
 2404 00ac 6448     		ldr	r0, .L279+4
 993:Drivers/STM32H7xx_HAL_Driver/Src/stm32h7xx_hal_rcc.c ****     {
 2405              		.loc 1 993 26 view .LVU839
 2406 00ae E168     		ldr	r1, [r4, #12]
 993:Drivers/STM32H7xx_HAL_Driver/Src/stm32h7xx_hal_rcc.c ****     {
 2407              		.loc 1 993 49 view .LVU840
 2408 00b0 8269     		ldr	r2, [r0, #24]
 993:Drivers/STM32H7xx_HAL_Driver/Src/stm32h7xx_hal_rcc.c ****     {
 2409              		.loc 1 993 58 view .LVU841
 2410 00b2 02F00F02 		and	r2, r2, #15
 993:Drivers/STM32H7xx_HAL_Driver/Src/stm32h7xx_hal_rcc.c ****     {
 2411              		.loc 1 993 7 view .LVU842
 2412 00b6 9142     		cmp	r1, r2
 2413 00b8 04D9     		bls	.L219
 996:Drivers/STM32H7xx_HAL_Driver/Src/stm32h7xx_hal_rcc.c ****       MODIFY_REG(RCC->D1CFGR, RCC_D1CFGR_HPRE, RCC_ClkInitStruct->AHBCLKDivider);
 2414              		.loc 1 996 7 is_stmt 1 view .LVU843
 997:Drivers/STM32H7xx_HAL_Driver/Src/stm32h7xx_hal_rcc.c ****     }
 2415              		.loc 1 997 7 view .LVU844
 2416 00ba 8269     		ldr	r2, [r0, #24]
 2417 00bc 22F00F02 		bic	r2, r2, #15
 2418 00c0 0A43     		orrs	r2, r2, r1
 2419 00c2 8261     		str	r2, [r0, #24]
 2420              	.L219:
1010:Drivers/STM32H7xx_HAL_Driver/Src/stm32h7xx_hal_rcc.c ****     {
 2421              		.loc 1 1010 5 view .LVU845
1010:Drivers/STM32H7xx_HAL_Driver/Src/stm32h7xx_hal_rcc.c ****     {
 2422              		.loc 1 1010 7 is_stmt 0 view .LVU846
 2423 00c4 D807     		lsls	r0, r3, #31
 2424 00c6 31D5     		bpl	.L235
 2425              	.L234:
1012:Drivers/STM32H7xx_HAL_Driver/Src/stm32h7xx_hal_rcc.c ****       assert_param(IS_RCC_SYSCLKSOURCE(RCC_ClkInitStruct->SYSCLKSource));
 2426              		.loc 1 1012 7 is_stmt 1 view .LVU847
1013:Drivers/STM32H7xx_HAL_Driver/Src/stm32h7xx_hal_rcc.c **** #if defined(RCC_D1CFGR_D1CPRE)
 2427              		.loc 1 1013 7 view .LVU848
1015:Drivers/STM32H7xx_HAL_Driver/Src/stm32h7xx_hal_rcc.c **** #else
 2428              		.loc 1 1015 7 view .LVU849
 2429 00c8 5D4A     		ldr	r2, .L279+4
 2430 00ca A168     		ldr	r1, [r4, #8]
 2431 00cc 9369     		ldr	r3, [r2, #24]
 2432 00ce 23F47063 		bic	r3, r3, #3840
 2433 00d2 0B43     		orrs	r3, r3, r1
 2434 00d4 9361     		str	r3, [r2, #24]
1020:Drivers/STM32H7xx_HAL_Driver/Src/stm32h7xx_hal_rcc.c ****       {
 2435              		.loc 1 1020 7 view .LVU850
1020:Drivers/STM32H7xx_HAL_Driver/Src/stm32h7xx_hal_rcc.c ****       {
 2436              		.loc 1 1020 27 is_stmt 0 view .LVU851
 2437 00d6 6168     		ldr	r1, [r4, #4]
1023:Drivers/STM32H7xx_HAL_Driver/Src/stm32h7xx_hal_rcc.c ****         {
 2438              		.loc 1 1023 12 view .LVU852
 2439 00d8 1368     		ldr	r3, [r2]
1020:Drivers/STM32H7xx_HAL_Driver/Src/stm32h7xx_hal_rcc.c ****       {
 2440              		.loc 1 1020 9 view .LVU853
 2441 00da 0229     		cmp	r1, #2
 2442 00dc 00F0A380 		beq	.L275
ARM GAS  /tmp/ccLdxC59.s 			page 80


1029:Drivers/STM32H7xx_HAL_Driver/Src/stm32h7xx_hal_rcc.c ****       {
 2443              		.loc 1 1029 12 is_stmt 1 view .LVU854
1029:Drivers/STM32H7xx_HAL_Driver/Src/stm32h7xx_hal_rcc.c ****       {
 2444              		.loc 1 1029 14 is_stmt 0 view .LVU855
 2445 00e0 0329     		cmp	r1, #3
 2446 00e2 00F09A80 		beq	.L276
1038:Drivers/STM32H7xx_HAL_Driver/Src/stm32h7xx_hal_rcc.c ****       {
 2447              		.loc 1 1038 12 is_stmt 1 view .LVU856
1038:Drivers/STM32H7xx_HAL_Driver/Src/stm32h7xx_hal_rcc.c ****       {
 2448              		.loc 1 1038 14 is_stmt 0 view .LVU857
 2449 00e6 0129     		cmp	r1, #1
 2450 00e8 00F0A380 		beq	.L277
1050:Drivers/STM32H7xx_HAL_Driver/Src/stm32h7xx_hal_rcc.c ****         {
 2451              		.loc 1 1050 9 is_stmt 1 view .LVU858
1050:Drivers/STM32H7xx_HAL_Driver/Src/stm32h7xx_hal_rcc.c ****         {
 2452              		.loc 1 1050 11 is_stmt 0 view .LVU859
 2453 00ec 5807     		lsls	r0, r3, #29
 2454 00ee 9ED5     		bpl	.L213
 2455              	.L221:
1055:Drivers/STM32H7xx_HAL_Driver/Src/stm32h7xx_hal_rcc.c **** 
 2456              		.loc 1 1055 7 is_stmt 1 view .LVU860
 2457 00f0 534A     		ldr	r2, .L279+4
1062:Drivers/STM32H7xx_HAL_Driver/Src/stm32h7xx_hal_rcc.c ****           {
 2458              		.loc 1 1062 13 is_stmt 0 view .LVU861
 2459 00f2 41F28838 		movw	r8, #5000
1055:Drivers/STM32H7xx_HAL_Driver/Src/stm32h7xx_hal_rcc.c **** 
 2460              		.loc 1 1055 7 view .LVU862
 2461 00f6 1369     		ldr	r3, [r2, #16]
1060:Drivers/STM32H7xx_HAL_Driver/Src/stm32h7xx_hal_rcc.c ****         {
 2462              		.loc 1 1060 16 view .LVU863
 2463 00f8 1746     		mov	r7, r2
1055:Drivers/STM32H7xx_HAL_Driver/Src/stm32h7xx_hal_rcc.c **** 
 2464              		.loc 1 1055 7 view .LVU864
 2465 00fa 23F00703 		bic	r3, r3, #7
 2466 00fe 0B43     		orrs	r3, r3, r1
 2467 0100 1361     		str	r3, [r2, #16]
1058:Drivers/STM32H7xx_HAL_Driver/Src/stm32h7xx_hal_rcc.c **** 
 2468              		.loc 1 1058 7 is_stmt 1 view .LVU865
1058:Drivers/STM32H7xx_HAL_Driver/Src/stm32h7xx_hal_rcc.c **** 
 2469              		.loc 1 1058 19 is_stmt 0 view .LVU866
 2470 0102 FFF7FEFF 		bl	HAL_GetTick
 2471              	.LVL184:
 2472 0106 0646     		mov	r6, r0
 2473              	.LVL185:
1060:Drivers/STM32H7xx_HAL_Driver/Src/stm32h7xx_hal_rcc.c ****         {
 2474              		.loc 1 1060 9 is_stmt 1 view .LVU867
1060:Drivers/STM32H7xx_HAL_Driver/Src/stm32h7xx_hal_rcc.c ****         {
 2475              		.loc 1 1060 15 is_stmt 0 view .LVU868
 2476 0108 05E0     		b	.L224
 2477              	.LVL186:
 2478              	.L225:
1062:Drivers/STM32H7xx_HAL_Driver/Src/stm32h7xx_hal_rcc.c ****           {
 2479              		.loc 1 1062 15 view .LVU869
 2480 010a FFF7FEFF 		bl	HAL_GetTick
 2481              	.LVL187:
1062:Drivers/STM32H7xx_HAL_Driver/Src/stm32h7xx_hal_rcc.c ****           {
 2482              		.loc 1 1062 29 view .LVU870
ARM GAS  /tmp/ccLdxC59.s 			page 81


 2483 010e 801B     		subs	r0, r0, r6
1062:Drivers/STM32H7xx_HAL_Driver/Src/stm32h7xx_hal_rcc.c ****           {
 2484              		.loc 1 1062 13 view .LVU871
 2485 0110 4045     		cmp	r0, r8
 2486 0112 00F28C80 		bhi	.L236
 2487              	.L224:
1062:Drivers/STM32H7xx_HAL_Driver/Src/stm32h7xx_hal_rcc.c ****           {
 2488              		.loc 1 1062 11 is_stmt 1 view .LVU872
1060:Drivers/STM32H7xx_HAL_Driver/Src/stm32h7xx_hal_rcc.c ****         {
 2489              		.loc 1 1060 15 view .LVU873
1060:Drivers/STM32H7xx_HAL_Driver/Src/stm32h7xx_hal_rcc.c ****         {
 2490              		.loc 1 1060 16 is_stmt 0 view .LVU874
 2491 0116 3B69     		ldr	r3, [r7, #16]
1060:Drivers/STM32H7xx_HAL_Driver/Src/stm32h7xx_hal_rcc.c ****         {
 2492              		.loc 1 1060 83 view .LVU875
 2493 0118 6268     		ldr	r2, [r4, #4]
1060:Drivers/STM32H7xx_HAL_Driver/Src/stm32h7xx_hal_rcc.c ****         {
 2494              		.loc 1 1060 16 view .LVU876
 2495 011a 03F03803 		and	r3, r3, #56
1060:Drivers/STM32H7xx_HAL_Driver/Src/stm32h7xx_hal_rcc.c ****         {
 2496              		.loc 1 1060 15 view .LVU877
 2497 011e B3EBC20F 		cmp	r3, r2, lsl #3
 2498 0122 F2D1     		bne	.L225
1072:Drivers/STM32H7xx_HAL_Driver/Src/stm32h7xx_hal_rcc.c ****   {
 2499              		.loc 1 1072 3 is_stmt 1 view .LVU878
1072:Drivers/STM32H7xx_HAL_Driver/Src/stm32h7xx_hal_rcc.c ****   {
 2500              		.loc 1 1072 25 is_stmt 0 view .LVU879
 2501 0124 2368     		ldr	r3, [r4]
1072:Drivers/STM32H7xx_HAL_Driver/Src/stm32h7xx_hal_rcc.c ****   {
 2502              		.loc 1 1072 5 view .LVU880
 2503 0126 9907     		lsls	r1, r3, #30
 2504 0128 06D5     		bpl	.L226
 2505 012a E168     		ldr	r1, [r4, #12]
 2506              	.LVL188:
 2507              	.L235:
1075:Drivers/STM32H7xx_HAL_Driver/Src/stm32h7xx_hal_rcc.c ****     {
 2508              		.loc 1 1075 5 is_stmt 1 view .LVU881
1075:Drivers/STM32H7xx_HAL_Driver/Src/stm32h7xx_hal_rcc.c ****     {
 2509              		.loc 1 1075 49 is_stmt 0 view .LVU882
 2510 012c 4448     		ldr	r0, .L279+4
 2511 012e 8269     		ldr	r2, [r0, #24]
1075:Drivers/STM32H7xx_HAL_Driver/Src/stm32h7xx_hal_rcc.c ****     {
 2512              		.loc 1 1075 58 view .LVU883
 2513 0130 02F00F02 		and	r2, r2, #15
1075:Drivers/STM32H7xx_HAL_Driver/Src/stm32h7xx_hal_rcc.c ****     {
 2514              		.loc 1 1075 7 view .LVU884
 2515 0134 8A42     		cmp	r2, r1
 2516 0136 6AD8     		bhi	.L278
 2517              	.L226:
1092:Drivers/STM32H7xx_HAL_Driver/Src/stm32h7xx_hal_rcc.c ****   {
 2518              		.loc 1 1092 3 is_stmt 1 view .LVU885
1092:Drivers/STM32H7xx_HAL_Driver/Src/stm32h7xx_hal_rcc.c ****   {
 2519              		.loc 1 1092 17 is_stmt 0 view .LVU886
 2520 0138 4049     		ldr	r1, .L279
 2521 013a 0A68     		ldr	r2, [r1]
 2522 013c 02F00F02 		and	r2, r2, #15
1092:Drivers/STM32H7xx_HAL_Driver/Src/stm32h7xx_hal_rcc.c ****   {
ARM GAS  /tmp/ccLdxC59.s 			page 82


 2523              		.loc 1 1092 5 view .LVU887
 2524 0140 AA42     		cmp	r2, r5
 2525 0142 0AD9     		bls	.L230
1095:Drivers/STM32H7xx_HAL_Driver/Src/stm32h7xx_hal_rcc.c **** 
 2526              		.loc 1 1095 5 is_stmt 1 view .LVU888
 2527 0144 0A68     		ldr	r2, [r1]
 2528 0146 22F00F02 		bic	r2, r2, #15
 2529 014a 2A43     		orrs	r2, r2, r5
 2530 014c 0A60     		str	r2, [r1]
1099:Drivers/STM32H7xx_HAL_Driver/Src/stm32h7xx_hal_rcc.c ****     {
 2531              		.loc 1 1099 5 view .LVU889
1099:Drivers/STM32H7xx_HAL_Driver/Src/stm32h7xx_hal_rcc.c ****     {
 2532              		.loc 1 1099 8 is_stmt 0 view .LVU890
 2533 014e 0A68     		ldr	r2, [r1]
 2534 0150 02F00F02 		and	r2, r2, #15
1099:Drivers/STM32H7xx_HAL_Driver/Src/stm32h7xx_hal_rcc.c ****     {
 2535              		.loc 1 1099 7 view .LVU891
 2536 0154 AA42     		cmp	r2, r5
 2537 0156 7FF46AAF 		bne	.L213
 2538              	.L230:
1106:Drivers/STM32H7xx_HAL_Driver/Src/stm32h7xx_hal_rcc.c ****  {
 2539              		.loc 1 1106 2 is_stmt 1 view .LVU892
1106:Drivers/STM32H7xx_HAL_Driver/Src/stm32h7xx_hal_rcc.c ****  {
 2540              		.loc 1 1106 4 is_stmt 0 view .LVU893
 2541 015a 5A07     		lsls	r2, r3, #29
 2542 015c 0BD5     		bpl	.L229
1109:Drivers/STM32H7xx_HAL_Driver/Src/stm32h7xx_hal_rcc.c ****    {
 2543              		.loc 1 1109 4 is_stmt 1 view .LVU894
1109:Drivers/STM32H7xx_HAL_Driver/Src/stm32h7xx_hal_rcc.c ****    {
 2544              		.loc 1 1109 49 is_stmt 0 view .LVU895
 2545 015e 3849     		ldr	r1, .L279+4
1109:Drivers/STM32H7xx_HAL_Driver/Src/stm32h7xx_hal_rcc.c ****    {
 2546              		.loc 1 1109 25 view .LVU896
 2547 0160 2069     		ldr	r0, [r4, #16]
1109:Drivers/STM32H7xx_HAL_Driver/Src/stm32h7xx_hal_rcc.c ****    {
 2548              		.loc 1 1109 49 view .LVU897
 2549 0162 8A69     		ldr	r2, [r1, #24]
1109:Drivers/STM32H7xx_HAL_Driver/Src/stm32h7xx_hal_rcc.c ****    {
 2550              		.loc 1 1109 58 view .LVU898
 2551 0164 02F07002 		and	r2, r2, #112
1109:Drivers/STM32H7xx_HAL_Driver/Src/stm32h7xx_hal_rcc.c ****    {
 2552              		.loc 1 1109 6 view .LVU899
 2553 0168 9042     		cmp	r0, r2
 2554 016a 04D2     		bcs	.L229
1111:Drivers/STM32H7xx_HAL_Driver/Src/stm32h7xx_hal_rcc.c ****      MODIFY_REG(RCC->D1CFGR, RCC_D1CFGR_D1PPRE, RCC_ClkInitStruct->APB3CLKDivider);
 2555              		.loc 1 1111 6 is_stmt 1 view .LVU900
1112:Drivers/STM32H7xx_HAL_Driver/Src/stm32h7xx_hal_rcc.c ****    }
 2556              		.loc 1 1112 6 view .LVU901
 2557 016c 8A69     		ldr	r2, [r1, #24]
 2558 016e 22F07002 		bic	r2, r2, #112
 2559 0172 0243     		orrs	r2, r2, r0
 2560 0174 8A61     		str	r2, [r1, #24]
 2561              	.L229:
1124:Drivers/STM32H7xx_HAL_Driver/Src/stm32h7xx_hal_rcc.c ****  {
 2562              		.loc 1 1124 2 view .LVU902
1124:Drivers/STM32H7xx_HAL_Driver/Src/stm32h7xx_hal_rcc.c ****  {
 2563              		.loc 1 1124 4 is_stmt 0 view .LVU903
ARM GAS  /tmp/ccLdxC59.s 			page 83


 2564 0176 1F07     		lsls	r7, r3, #28
 2565 0178 0BD5     		bpl	.L231
1127:Drivers/STM32H7xx_HAL_Driver/Src/stm32h7xx_hal_rcc.c ****    {
 2566              		.loc 1 1127 4 is_stmt 1 view .LVU904
1127:Drivers/STM32H7xx_HAL_Driver/Src/stm32h7xx_hal_rcc.c ****    {
 2567              		.loc 1 1127 49 is_stmt 0 view .LVU905
 2568 017a 3149     		ldr	r1, .L279+4
1127:Drivers/STM32H7xx_HAL_Driver/Src/stm32h7xx_hal_rcc.c ****    {
 2569              		.loc 1 1127 25 view .LVU906
 2570 017c 6069     		ldr	r0, [r4, #20]
1127:Drivers/STM32H7xx_HAL_Driver/Src/stm32h7xx_hal_rcc.c ****    {
 2571              		.loc 1 1127 49 view .LVU907
 2572 017e CA69     		ldr	r2, [r1, #28]
1127:Drivers/STM32H7xx_HAL_Driver/Src/stm32h7xx_hal_rcc.c ****    {
 2573              		.loc 1 1127 58 view .LVU908
 2574 0180 02F07002 		and	r2, r2, #112
1127:Drivers/STM32H7xx_HAL_Driver/Src/stm32h7xx_hal_rcc.c ****    {
 2575              		.loc 1 1127 6 view .LVU909
 2576 0184 9042     		cmp	r0, r2
 2577 0186 04D2     		bcs	.L231
1129:Drivers/STM32H7xx_HAL_Driver/Src/stm32h7xx_hal_rcc.c ****      MODIFY_REG(RCC->D2CFGR, RCC_D2CFGR_D2PPRE1, (RCC_ClkInitStruct->APB1CLKDivider));
 2578              		.loc 1 1129 6 is_stmt 1 view .LVU910
1130:Drivers/STM32H7xx_HAL_Driver/Src/stm32h7xx_hal_rcc.c ****    }
 2579              		.loc 1 1130 6 view .LVU911
 2580 0188 CA69     		ldr	r2, [r1, #28]
 2581 018a 22F07002 		bic	r2, r2, #112
 2582 018e 0243     		orrs	r2, r2, r0
 2583 0190 CA61     		str	r2, [r1, #28]
 2584              	.L231:
1142:Drivers/STM32H7xx_HAL_Driver/Src/stm32h7xx_hal_rcc.c ****  {
 2585              		.loc 1 1142 2 view .LVU912
1142:Drivers/STM32H7xx_HAL_Driver/Src/stm32h7xx_hal_rcc.c ****  {
 2586              		.loc 1 1142 4 is_stmt 0 view .LVU913
 2587 0192 DE06     		lsls	r6, r3, #27
 2588 0194 0BD5     		bpl	.L232
1145:Drivers/STM32H7xx_HAL_Driver/Src/stm32h7xx_hal_rcc.c ****    {
 2589              		.loc 1 1145 4 is_stmt 1 view .LVU914
1145:Drivers/STM32H7xx_HAL_Driver/Src/stm32h7xx_hal_rcc.c ****    {
 2590              		.loc 1 1145 49 is_stmt 0 view .LVU915
 2591 0196 2A49     		ldr	r1, .L279+4
1145:Drivers/STM32H7xx_HAL_Driver/Src/stm32h7xx_hal_rcc.c ****    {
 2592              		.loc 1 1145 25 view .LVU916
 2593 0198 A069     		ldr	r0, [r4, #24]
1145:Drivers/STM32H7xx_HAL_Driver/Src/stm32h7xx_hal_rcc.c ****    {
 2594              		.loc 1 1145 49 view .LVU917
 2595 019a CA69     		ldr	r2, [r1, #28]
1145:Drivers/STM32H7xx_HAL_Driver/Src/stm32h7xx_hal_rcc.c ****    {
 2596              		.loc 1 1145 58 view .LVU918
 2597 019c 02F4E062 		and	r2, r2, #1792
1145:Drivers/STM32H7xx_HAL_Driver/Src/stm32h7xx_hal_rcc.c ****    {
 2598              		.loc 1 1145 6 view .LVU919
 2599 01a0 9042     		cmp	r0, r2
 2600 01a2 04D2     		bcs	.L232
1147:Drivers/STM32H7xx_HAL_Driver/Src/stm32h7xx_hal_rcc.c ****      MODIFY_REG(RCC->D2CFGR, RCC_D2CFGR_D2PPRE2, (RCC_ClkInitStruct->APB2CLKDivider));
 2601              		.loc 1 1147 6 is_stmt 1 view .LVU920
1148:Drivers/STM32H7xx_HAL_Driver/Src/stm32h7xx_hal_rcc.c ****    }
 2602              		.loc 1 1148 6 view .LVU921
ARM GAS  /tmp/ccLdxC59.s 			page 84


 2603 01a4 CA69     		ldr	r2, [r1, #28]
 2604 01a6 22F4E062 		bic	r2, r2, #1792
 2605 01aa 0243     		orrs	r2, r2, r0
 2606 01ac CA61     		str	r2, [r1, #28]
 2607              	.L232:
1160:Drivers/STM32H7xx_HAL_Driver/Src/stm32h7xx_hal_rcc.c ****  {
 2608              		.loc 1 1160 2 view .LVU922
1160:Drivers/STM32H7xx_HAL_Driver/Src/stm32h7xx_hal_rcc.c ****  {
 2609              		.loc 1 1160 4 is_stmt 0 view .LVU923
 2610 01ae 9D06     		lsls	r5, r3, #26
 2611              	.LVL189:
1160:Drivers/STM32H7xx_HAL_Driver/Src/stm32h7xx_hal_rcc.c ****  {
 2612              		.loc 1 1160 4 view .LVU924
 2613 01b0 0BD5     		bpl	.L233
1163:Drivers/STM32H7xx_HAL_Driver/Src/stm32h7xx_hal_rcc.c ****    {
 2614              		.loc 1 1163 4 is_stmt 1 view .LVU925
1163:Drivers/STM32H7xx_HAL_Driver/Src/stm32h7xx_hal_rcc.c ****    {
 2615              		.loc 1 1163 49 is_stmt 0 view .LVU926
 2616 01b2 234A     		ldr	r2, .L279+4
1163:Drivers/STM32H7xx_HAL_Driver/Src/stm32h7xx_hal_rcc.c ****    {
 2617              		.loc 1 1163 25 view .LVU927
 2618 01b4 E169     		ldr	r1, [r4, #28]
1163:Drivers/STM32H7xx_HAL_Driver/Src/stm32h7xx_hal_rcc.c ****    {
 2619              		.loc 1 1163 49 view .LVU928
 2620 01b6 136A     		ldr	r3, [r2, #32]
1163:Drivers/STM32H7xx_HAL_Driver/Src/stm32h7xx_hal_rcc.c ****    {
 2621              		.loc 1 1163 58 view .LVU929
 2622 01b8 03F07003 		and	r3, r3, #112
1163:Drivers/STM32H7xx_HAL_Driver/Src/stm32h7xx_hal_rcc.c ****    {
 2623              		.loc 1 1163 6 view .LVU930
 2624 01bc 9942     		cmp	r1, r3
 2625 01be 04D2     		bcs	.L233
1165:Drivers/STM32H7xx_HAL_Driver/Src/stm32h7xx_hal_rcc.c ****      MODIFY_REG(RCC->D3CFGR, RCC_D3CFGR_D3PPRE, (RCC_ClkInitStruct->APB4CLKDivider) );
 2626              		.loc 1 1165 6 is_stmt 1 view .LVU931
1166:Drivers/STM32H7xx_HAL_Driver/Src/stm32h7xx_hal_rcc.c ****    }
 2627              		.loc 1 1166 6 view .LVU932
 2628 01c0 136A     		ldr	r3, [r2, #32]
 2629 01c2 23F07003 		bic	r3, r3, #112
 2630 01c6 0B43     		orrs	r3, r3, r1
 2631 01c8 1362     		str	r3, [r2, #32]
 2632              	.L233:
1179:Drivers/STM32H7xx_HAL_Driver/Src/stm32h7xx_hal_rcc.c **** #else
 2633              		.loc 1 1179 3 view .LVU933
1179:Drivers/STM32H7xx_HAL_Driver/Src/stm32h7xx_hal_rcc.c **** #else
 2634              		.loc 1 1179 25 is_stmt 0 view .LVU934
 2635 01ca FFF7FEFF 		bl	HAL_RCC_GetSysClockFreq
 2636              	.LVL190:
1179:Drivers/STM32H7xx_HAL_Driver/Src/stm32h7xx_hal_rcc.c **** #else
 2637              		.loc 1 1179 77 view .LVU935
 2638 01ce 1C4B     		ldr	r3, .L279+4
1179:Drivers/STM32H7xx_HAL_Driver/Src/stm32h7xx_hal_rcc.c **** #else
 2639              		.loc 1 1179 25 view .LVU936
 2640 01d0 0246     		mov	r2, r0
1179:Drivers/STM32H7xx_HAL_Driver/Src/stm32h7xx_hal_rcc.c **** #else
 2641              		.loc 1 1179 72 view .LVU937
 2642 01d2 1C48     		ldr	r0, .L279+8
1179:Drivers/STM32H7xx_HAL_Driver/Src/stm32h7xx_hal_rcc.c **** #else
ARM GAS  /tmp/ccLdxC59.s 			page 85


 2643              		.loc 1 1179 77 view .LVU938
 2644 01d4 9969     		ldr	r1, [r3, #24]
1185:Drivers/STM32H7xx_HAL_Driver/Src/stm32h7xx_hal_rcc.c **** #else
 2645              		.loc 1 1185 66 view .LVU939
 2646 01d6 9B69     		ldr	r3, [r3, #24]
1179:Drivers/STM32H7xx_HAL_Driver/Src/stm32h7xx_hal_rcc.c **** #else
 2647              		.loc 1 1179 106 view .LVU940
 2648 01d8 C1F30321 		ubfx	r1, r1, #8, #4
1197:Drivers/STM32H7xx_HAL_Driver/Src/stm32h7xx_hal_rcc.c **** 
 2649              		.loc 1 1197 15 view .LVU941
 2650 01dc 1A4D     		ldr	r5, .L279+12
1185:Drivers/STM32H7xx_HAL_Driver/Src/stm32h7xx_hal_rcc.c **** #else
 2651              		.loc 1 1185 93 view .LVU942
 2652 01de 03F00F03 		and	r3, r3, #15
1185:Drivers/STM32H7xx_HAL_Driver/Src/stm32h7xx_hal_rcc.c **** #else
 2653              		.loc 1 1185 17 view .LVU943
 2654 01e2 1A4C     		ldr	r4, .L279+16
 2655              	.LVL191:
1179:Drivers/STM32H7xx_HAL_Driver/Src/stm32h7xx_hal_rcc.c **** #else
 2656              		.loc 1 1179 133 view .LVU944
 2657 01e4 415C     		ldrb	r1, [r0, r1]	@ zero_extendqisi2
1185:Drivers/STM32H7xx_HAL_Driver/Src/stm32h7xx_hal_rcc.c **** #else
 2658              		.loc 1 1185 118 view .LVU945
 2659 01e6 C35C     		ldrb	r3, [r0, r3]	@ zero_extendqisi2
1179:Drivers/STM32H7xx_HAL_Driver/Src/stm32h7xx_hal_rcc.c **** #else
 2660              		.loc 1 1179 133 view .LVU946
 2661 01e8 01F01F01 		and	r1, r1, #31
1197:Drivers/STM32H7xx_HAL_Driver/Src/stm32h7xx_hal_rcc.c **** 
 2662              		.loc 1 1197 15 view .LVU947
 2663 01ec 2868     		ldr	r0, [r5]
1185:Drivers/STM32H7xx_HAL_Driver/Src/stm32h7xx_hal_rcc.c **** #else
 2664              		.loc 1 1185 118 view .LVU948
 2665 01ee 03F01F03 		and	r3, r3, #31
1193:Drivers/STM32H7xx_HAL_Driver/Src/stm32h7xx_hal_rcc.c **** #endif /* DUAL_CORE && CORE_CM4 */
 2666              		.loc 1 1193 19 view .LVU949
 2667 01f2 174D     		ldr	r5, .L279+20
1179:Drivers/STM32H7xx_HAL_Driver/Src/stm32h7xx_hal_rcc.c **** #else
 2668              		.loc 1 1179 23 view .LVU950
 2669 01f4 CA40     		lsrs	r2, r2, r1
 2670              	.LVL192:
1185:Drivers/STM32H7xx_HAL_Driver/Src/stm32h7xx_hal_rcc.c **** #else
 2671              		.loc 1 1185 3 is_stmt 1 view .LVU951
1185:Drivers/STM32H7xx_HAL_Driver/Src/stm32h7xx_hal_rcc.c **** #else
 2672              		.loc 1 1185 40 is_stmt 0 view .LVU952
 2673 01f6 22FA03F3 		lsr	r3, r2, r3
1193:Drivers/STM32H7xx_HAL_Driver/Src/stm32h7xx_hal_rcc.c **** #endif /* DUAL_CORE && CORE_CM4 */
 2674              		.loc 1 1193 19 view .LVU953
 2675 01fa 2A60     		str	r2, [r5]
1185:Drivers/STM32H7xx_HAL_Driver/Src/stm32h7xx_hal_rcc.c **** #else
 2676              		.loc 1 1185 17 view .LVU954
 2677 01fc 2360     		str	r3, [r4]
1193:Drivers/STM32H7xx_HAL_Driver/Src/stm32h7xx_hal_rcc.c **** #endif /* DUAL_CORE && CORE_CM4 */
 2678              		.loc 1 1193 3 is_stmt 1 view .LVU955
1197:Drivers/STM32H7xx_HAL_Driver/Src/stm32h7xx_hal_rcc.c **** 
 2679              		.loc 1 1197 3 view .LVU956
1200:Drivers/STM32H7xx_HAL_Driver/Src/stm32h7xx_hal_rcc.c **** 
 2680              		.loc 1 1200 1 is_stmt 0 view .LVU957
ARM GAS  /tmp/ccLdxC59.s 			page 86


 2681 01fe BDE8F041 		pop	{r4, r5, r6, r7, r8, lr}
 2682              	.LCFI13:
 2683              		.cfi_remember_state
 2684              		.cfi_restore 14
 2685              		.cfi_restore 8
 2686              		.cfi_restore 7
 2687              		.cfi_restore 6
 2688              		.cfi_restore 5
 2689              		.cfi_restore 4
 2690              		.cfi_def_cfa_offset 0
1197:Drivers/STM32H7xx_HAL_Driver/Src/stm32h7xx_hal_rcc.c **** 
 2691              		.loc 1 1197 15 view .LVU958
 2692 0202 FFF7FEBF 		b	HAL_InitTick
 2693              	.LVL193:
 2694              	.L218:
 2695              	.LCFI14:
 2696              		.cfi_restore_state
1010:Drivers/STM32H7xx_HAL_Driver/Src/stm32h7xx_hal_rcc.c ****     {
 2697              		.loc 1 1010 5 is_stmt 1 view .LVU959
1010:Drivers/STM32H7xx_HAL_Driver/Src/stm32h7xx_hal_rcc.c ****     {
 2698              		.loc 1 1010 7 is_stmt 0 view .LVU960
 2699 0206 DA07     		lsls	r2, r3, #31
 2700 0208 3FF55EAF 		bmi	.L234
 2701 020c 94E7     		b	.L226
 2702              	.L278:
1078:Drivers/STM32H7xx_HAL_Driver/Src/stm32h7xx_hal_rcc.c ****       MODIFY_REG(RCC->D1CFGR, RCC_D1CFGR_HPRE, RCC_ClkInitStruct->AHBCLKDivider);
 2703              		.loc 1 1078 7 is_stmt 1 view .LVU961
1079:Drivers/STM32H7xx_HAL_Driver/Src/stm32h7xx_hal_rcc.c ****     }
 2704              		.loc 1 1079 7 view .LVU962
 2705 020e 8269     		ldr	r2, [r0, #24]
 2706 0210 22F00F02 		bic	r2, r2, #15
 2707 0214 1143     		orrs	r1, r1, r2
 2708 0216 8161     		str	r1, [r0, #24]
 2709 0218 8EE7     		b	.L226
 2710              	.L276:
1032:Drivers/STM32H7xx_HAL_Driver/Src/stm32h7xx_hal_rcc.c ****         {
 2711              		.loc 1 1032 9 view .LVU963
1032:Drivers/STM32H7xx_HAL_Driver/Src/stm32h7xx_hal_rcc.c ****         {
 2712              		.loc 1 1032 11 is_stmt 0 view .LVU964
 2713 021a 9F01     		lsls	r7, r3, #6
 2714 021c 3FF568AF 		bmi	.L221
 2715 0220 05E7     		b	.L213
 2716              	.LVL194:
 2717              	.L274:
 2718              	.LCFI15:
 2719              		.cfi_def_cfa_offset 0
 2720              		.cfi_restore 4
 2721              		.cfi_restore 5
 2722              		.cfi_restore 6
 2723              		.cfi_restore 7
 2724              		.cfi_restore 8
 2725              		.cfi_restore 14
 891:Drivers/STM32H7xx_HAL_Driver/Src/stm32h7xx_hal_rcc.c ****   }
 2726              		.loc 1 891 12 view .LVU965
 2727 0222 0120     		movs	r0, #1
 2728              	.LVL195:
1200:Drivers/STM32H7xx_HAL_Driver/Src/stm32h7xx_hal_rcc.c **** 
ARM GAS  /tmp/ccLdxC59.s 			page 87


 2729              		.loc 1 1200 1 view .LVU966
 2730 0224 7047     		bx	lr
 2731              	.LVL196:
 2732              	.L275:
 2733              	.LCFI16:
 2734              		.cfi_def_cfa_offset 24
 2735              		.cfi_offset 4, -24
 2736              		.cfi_offset 5, -20
 2737              		.cfi_offset 6, -16
 2738              		.cfi_offset 7, -12
 2739              		.cfi_offset 8, -8
 2740              		.cfi_offset 14, -4
1023:Drivers/STM32H7xx_HAL_Driver/Src/stm32h7xx_hal_rcc.c ****         {
 2741              		.loc 1 1023 9 is_stmt 1 view .LVU967
1023:Drivers/STM32H7xx_HAL_Driver/Src/stm32h7xx_hal_rcc.c ****         {
 2742              		.loc 1 1023 11 is_stmt 0 view .LVU968
 2743 0226 9B03     		lsls	r3, r3, #14
 2744 0228 3FF562AF 		bmi	.L221
 2745 022c FFE6     		b	.L213
 2746              	.LVL197:
 2747              	.L236:
1064:Drivers/STM32H7xx_HAL_Driver/Src/stm32h7xx_hal_rcc.c ****           }
 2748              		.loc 1 1064 20 view .LVU969
 2749 022e 0320     		movs	r0, #3
 2750 0230 FEE6     		b	.L270
 2751              	.LVL198:
 2752              	.L277:
1041:Drivers/STM32H7xx_HAL_Driver/Src/stm32h7xx_hal_rcc.c ****         {
 2753              		.loc 1 1041 9 is_stmt 1 view .LVU970
1041:Drivers/STM32H7xx_HAL_Driver/Src/stm32h7xx_hal_rcc.c ****         {
 2754              		.loc 1 1041 11 is_stmt 0 view .LVU971
 2755 0232 DE05     		lsls	r6, r3, #23
 2756 0234 3FF55CAF 		bmi	.L221
 2757 0238 F9E6     		b	.L213
 2758              	.L280:
 2759 023a 00BF     		.align	2
 2760              	.L279:
 2761 023c 00200052 		.word	1375739904
 2762 0240 00440258 		.word	1476543488
 2763 0244 00000000 		.word	D1CorePrescTable
 2764 0248 00000000 		.word	uwTickPrio
 2765 024c 00000000 		.word	SystemD2Clock
 2766 0250 00000000 		.word	SystemCoreClock
 2767              		.cfi_endproc
 2768              	.LFE143:
 2770              		.section	.text.HAL_RCC_GetHCLKFreq,"ax",%progbits
 2771              		.align	1
 2772              		.p2align 2,,3
 2773              		.global	HAL_RCC_GetHCLKFreq
 2774              		.syntax unified
 2775              		.thumb
 2776              		.thumb_func
 2777              		.fpu fpv5-d16
 2779              	HAL_RCC_GetHCLKFreq:
 2780              	.LFB148:
1434:Drivers/STM32H7xx_HAL_Driver/Src/stm32h7xx_hal_rcc.c **** 
1435:Drivers/STM32H7xx_HAL_Driver/Src/stm32h7xx_hal_rcc.c **** 
ARM GAS  /tmp/ccLdxC59.s 			page 88


1436:Drivers/STM32H7xx_HAL_Driver/Src/stm32h7xx_hal_rcc.c **** /**
1437:Drivers/STM32H7xx_HAL_Driver/Src/stm32h7xx_hal_rcc.c ****   * @brief  Returns the HCLK frequency
1438:Drivers/STM32H7xx_HAL_Driver/Src/stm32h7xx_hal_rcc.c ****   * @note   Each time HCLK changes, this function must be called to update the
1439:Drivers/STM32H7xx_HAL_Driver/Src/stm32h7xx_hal_rcc.c ****   *         right HCLK value. Otherwise, any configuration based on this function will be incorrect
1440:Drivers/STM32H7xx_HAL_Driver/Src/stm32h7xx_hal_rcc.c ****   *
1441:Drivers/STM32H7xx_HAL_Driver/Src/stm32h7xx_hal_rcc.c ****   * @note   The SystemD2Clock CMSIS variable is used to store System domain2 Clock Frequency
1442:Drivers/STM32H7xx_HAL_Driver/Src/stm32h7xx_hal_rcc.c ****   *         and updated within this function
1443:Drivers/STM32H7xx_HAL_Driver/Src/stm32h7xx_hal_rcc.c ****   * @retval HCLK frequency
1444:Drivers/STM32H7xx_HAL_Driver/Src/stm32h7xx_hal_rcc.c ****   */
1445:Drivers/STM32H7xx_HAL_Driver/Src/stm32h7xx_hal_rcc.c **** uint32_t HAL_RCC_GetHCLKFreq(void)
1446:Drivers/STM32H7xx_HAL_Driver/Src/stm32h7xx_hal_rcc.c **** {
 2781              		.loc 1 1446 1 is_stmt 1 view -0
 2782              		.cfi_startproc
 2783              		@ args = 0, pretend = 0, frame = 0
 2784              		@ frame_needed = 0, uses_anonymous_args = 0
1447:Drivers/STM32H7xx_HAL_Driver/Src/stm32h7xx_hal_rcc.c **** uint32_t common_system_clock;
 2785              		.loc 1 1447 1 view .LVU973
1448:Drivers/STM32H7xx_HAL_Driver/Src/stm32h7xx_hal_rcc.c **** 
1449:Drivers/STM32H7xx_HAL_Driver/Src/stm32h7xx_hal_rcc.c **** #if defined(RCC_D1CFGR_D1CPRE)
1450:Drivers/STM32H7xx_HAL_Driver/Src/stm32h7xx_hal_rcc.c ****   common_system_clock = HAL_RCC_GetSysClockFreq() >> (D1CorePrescTable[(RCC->D1CFGR & RCC_D1CFGR_D1
 2786              		.loc 1 1450 3 view .LVU974
1446:Drivers/STM32H7xx_HAL_Driver/Src/stm32h7xx_hal_rcc.c **** uint32_t common_system_clock;
 2787              		.loc 1 1446 1 is_stmt 0 view .LVU975
 2788 0000 38B5     		push	{r3, r4, r5, lr}
 2789              	.LCFI17:
 2790              		.cfi_def_cfa_offset 16
 2791              		.cfi_offset 3, -16
 2792              		.cfi_offset 4, -12
 2793              		.cfi_offset 5, -8
 2794              		.cfi_offset 14, -4
 2795              		.loc 1 1450 25 view .LVU976
 2796 0002 FFF7FEFF 		bl	HAL_RCC_GetSysClockFreq
 2797              	.LVL199:
 2798              		.loc 1 1450 76 view .LVU977
 2799 0006 0B4B     		ldr	r3, .L283
 2800              		.loc 1 1450 71 view .LVU978
 2801 0008 0B49     		ldr	r1, .L283+4
 2802              		.loc 1 1450 76 view .LVU979
 2803 000a 9A69     		ldr	r2, [r3, #24]
1451:Drivers/STM32H7xx_HAL_Driver/Src/stm32h7xx_hal_rcc.c **** #else
1452:Drivers/STM32H7xx_HAL_Driver/Src/stm32h7xx_hal_rcc.c ****   common_system_clock = HAL_RCC_GetSysClockFreq() >> (D1CorePrescTable[(RCC->CDCFGR1 & RCC_CDCFGR1_
1453:Drivers/STM32H7xx_HAL_Driver/Src/stm32h7xx_hal_rcc.c **** #endif
1454:Drivers/STM32H7xx_HAL_Driver/Src/stm32h7xx_hal_rcc.c **** 
1455:Drivers/STM32H7xx_HAL_Driver/Src/stm32h7xx_hal_rcc.c **** #if defined(RCC_D1CFGR_HPRE)
1456:Drivers/STM32H7xx_HAL_Driver/Src/stm32h7xx_hal_rcc.c ****   SystemD2Clock = (common_system_clock >> ((D1CorePrescTable[(RCC->D1CFGR & RCC_D1CFGR_HPRE)>> RCC_
 2804              		.loc 1 1456 66 view .LVU980
 2805 000c 9B69     		ldr	r3, [r3, #24]
1450:Drivers/STM32H7xx_HAL_Driver/Src/stm32h7xx_hal_rcc.c **** #else
 2806              		.loc 1 1450 105 view .LVU981
 2807 000e C2F30322 		ubfx	r2, r2, #8, #4
 2808              		.loc 1 1456 17 view .LVU982
 2809 0012 0A4C     		ldr	r4, .L283+8
 2810              		.loc 1 1456 93 view .LVU983
 2811 0014 03F00F03 		and	r3, r3, #15
1457:Drivers/STM32H7xx_HAL_Driver/Src/stm32h7xx_hal_rcc.c **** #else
1458:Drivers/STM32H7xx_HAL_Driver/Src/stm32h7xx_hal_rcc.c ****   SystemD2Clock = (common_system_clock >> ((D1CorePrescTable[(RCC->CDCFGR1 & RCC_CDCFGR1_HPRE)>> RC
1459:Drivers/STM32H7xx_HAL_Driver/Src/stm32h7xx_hal_rcc.c **** #endif
ARM GAS  /tmp/ccLdxC59.s 			page 89


1460:Drivers/STM32H7xx_HAL_Driver/Src/stm32h7xx_hal_rcc.c **** 
1461:Drivers/STM32H7xx_HAL_Driver/Src/stm32h7xx_hal_rcc.c **** #if defined(DUAL_CORE) && defined(CORE_CM4)
1462:Drivers/STM32H7xx_HAL_Driver/Src/stm32h7xx_hal_rcc.c ****   SystemCoreClock = SystemD2Clock;
1463:Drivers/STM32H7xx_HAL_Driver/Src/stm32h7xx_hal_rcc.c **** #else
1464:Drivers/STM32H7xx_HAL_Driver/Src/stm32h7xx_hal_rcc.c ****   SystemCoreClock = common_system_clock;
 2812              		.loc 1 1464 19 view .LVU984
 2813 0018 094D     		ldr	r5, .L283+12
1450:Drivers/STM32H7xx_HAL_Driver/Src/stm32h7xx_hal_rcc.c **** #else
 2814              		.loc 1 1450 131 view .LVU985
 2815 001a 8A5C     		ldrb	r2, [r1, r2]	@ zero_extendqisi2
1456:Drivers/STM32H7xx_HAL_Driver/Src/stm32h7xx_hal_rcc.c **** #else
 2816              		.loc 1 1456 118 view .LVU986
 2817 001c CB5C     		ldrb	r3, [r1, r3]	@ zero_extendqisi2
1450:Drivers/STM32H7xx_HAL_Driver/Src/stm32h7xx_hal_rcc.c **** #else
 2818              		.loc 1 1450 131 view .LVU987
 2819 001e 02F01F02 		and	r2, r2, #31
1456:Drivers/STM32H7xx_HAL_Driver/Src/stm32h7xx_hal_rcc.c **** #else
 2820              		.loc 1 1456 118 view .LVU988
 2821 0022 03F01F03 		and	r3, r3, #31
1450:Drivers/STM32H7xx_HAL_Driver/Src/stm32h7xx_hal_rcc.c **** #else
 2822              		.loc 1 1450 23 view .LVU989
 2823 0026 20FA02F2 		lsr	r2, r0, r2
 2824              	.LVL200:
1456:Drivers/STM32H7xx_HAL_Driver/Src/stm32h7xx_hal_rcc.c **** #else
 2825              		.loc 1 1456 3 is_stmt 1 view .LVU990
1456:Drivers/STM32H7xx_HAL_Driver/Src/stm32h7xx_hal_rcc.c **** #else
 2826              		.loc 1 1456 40 is_stmt 0 view .LVU991
 2827 002a 22FA03F0 		lsr	r0, r2, r3
 2828              		.loc 1 1464 19 view .LVU992
 2829 002e 2A60     		str	r2, [r5]
1456:Drivers/STM32H7xx_HAL_Driver/Src/stm32h7xx_hal_rcc.c **** #else
 2830              		.loc 1 1456 17 view .LVU993
 2831 0030 2060     		str	r0, [r4]
 2832              		.loc 1 1464 3 is_stmt 1 view .LVU994
1465:Drivers/STM32H7xx_HAL_Driver/Src/stm32h7xx_hal_rcc.c **** #endif /* DUAL_CORE && CORE_CM4 */
1466:Drivers/STM32H7xx_HAL_Driver/Src/stm32h7xx_hal_rcc.c **** 
1467:Drivers/STM32H7xx_HAL_Driver/Src/stm32h7xx_hal_rcc.c ****   return SystemD2Clock;
 2833              		.loc 1 1467 3 view .LVU995
1468:Drivers/STM32H7xx_HAL_Driver/Src/stm32h7xx_hal_rcc.c **** }
 2834              		.loc 1 1468 1 is_stmt 0 view .LVU996
 2835 0032 38BD     		pop	{r3, r4, r5, pc}
 2836              	.L284:
 2837              		.align	2
 2838              	.L283:
 2839 0034 00440258 		.word	1476543488
 2840 0038 00000000 		.word	D1CorePrescTable
 2841 003c 00000000 		.word	SystemD2Clock
 2842 0040 00000000 		.word	SystemCoreClock
 2843              		.cfi_endproc
 2844              	.LFE148:
 2846              		.section	.text.HAL_RCC_GetPCLK1Freq,"ax",%progbits
 2847              		.align	1
 2848              		.p2align 2,,3
 2849              		.global	HAL_RCC_GetPCLK1Freq
 2850              		.syntax unified
 2851              		.thumb
 2852              		.thumb_func
ARM GAS  /tmp/ccLdxC59.s 			page 90


 2853              		.fpu fpv5-d16
 2855              	HAL_RCC_GetPCLK1Freq:
 2856              	.LFB149:
1469:Drivers/STM32H7xx_HAL_Driver/Src/stm32h7xx_hal_rcc.c **** 
1470:Drivers/STM32H7xx_HAL_Driver/Src/stm32h7xx_hal_rcc.c **** 
1471:Drivers/STM32H7xx_HAL_Driver/Src/stm32h7xx_hal_rcc.c **** /**
1472:Drivers/STM32H7xx_HAL_Driver/Src/stm32h7xx_hal_rcc.c ****   * @brief  Returns the PCLK1 frequency
1473:Drivers/STM32H7xx_HAL_Driver/Src/stm32h7xx_hal_rcc.c ****   * @note   Each time PCLK1 changes, this function must be called to update the
1474:Drivers/STM32H7xx_HAL_Driver/Src/stm32h7xx_hal_rcc.c ****   *         right PCLK1 value. Otherwise, any configuration based on this function will be incorrec
1475:Drivers/STM32H7xx_HAL_Driver/Src/stm32h7xx_hal_rcc.c ****   * @retval PCLK1 frequency
1476:Drivers/STM32H7xx_HAL_Driver/Src/stm32h7xx_hal_rcc.c ****   */
1477:Drivers/STM32H7xx_HAL_Driver/Src/stm32h7xx_hal_rcc.c **** uint32_t HAL_RCC_GetPCLK1Freq(void)
1478:Drivers/STM32H7xx_HAL_Driver/Src/stm32h7xx_hal_rcc.c **** {
 2857              		.loc 1 1478 1 is_stmt 1 view -0
 2858              		.cfi_startproc
 2859              		@ args = 0, pretend = 0, frame = 0
 2860              		@ frame_needed = 0, uses_anonymous_args = 0
1479:Drivers/STM32H7xx_HAL_Driver/Src/stm32h7xx_hal_rcc.c **** #if defined (RCC_D2CFGR_D2PPRE1)
1480:Drivers/STM32H7xx_HAL_Driver/Src/stm32h7xx_hal_rcc.c ****   /* Get HCLK source and Compute PCLK1 frequency ---------------------------*/
1481:Drivers/STM32H7xx_HAL_Driver/Src/stm32h7xx_hal_rcc.c ****   return (HAL_RCC_GetHCLKFreq() >> ((D1CorePrescTable[(RCC->D2CFGR & RCC_D2CFGR_D2PPRE1)>> RCC_D2CF
 2861              		.loc 1 1481 3 view .LVU998
1478:Drivers/STM32H7xx_HAL_Driver/Src/stm32h7xx_hal_rcc.c **** #if defined (RCC_D2CFGR_D2PPRE1)
 2862              		.loc 1 1478 1 is_stmt 0 view .LVU999
 2863 0000 08B5     		push	{r3, lr}
 2864              	.LCFI18:
 2865              		.cfi_def_cfa_offset 8
 2866              		.cfi_offset 3, -8
 2867              		.cfi_offset 14, -4
 2868              		.loc 1 1481 11 view .LVU1000
 2869 0002 FFF7FEFF 		bl	HAL_RCC_GetHCLKFreq
 2870              	.LVL201:
 2871              		.loc 1 1481 59 view .LVU1001
 2872 0006 054B     		ldr	r3, .L287
 2873              		.loc 1 1481 54 view .LVU1002
 2874 0008 054A     		ldr	r2, .L287+4
 2875              		.loc 1 1481 59 view .LVU1003
 2876 000a DB69     		ldr	r3, [r3, #28]
 2877              		.loc 1 1481 89 view .LVU1004
 2878 000c C3F30213 		ubfx	r3, r3, #4, #3
 2879              		.loc 1 1481 117 view .LVU1005
 2880 0010 D35C     		ldrb	r3, [r2, r3]	@ zero_extendqisi2
 2881 0012 03F01F03 		and	r3, r3, #31
1482:Drivers/STM32H7xx_HAL_Driver/Src/stm32h7xx_hal_rcc.c **** #else
1483:Drivers/STM32H7xx_HAL_Driver/Src/stm32h7xx_hal_rcc.c ****  /* Get HCLK source and Compute PCLK1 frequency ---------------------------*/
1484:Drivers/STM32H7xx_HAL_Driver/Src/stm32h7xx_hal_rcc.c ****   return (HAL_RCC_GetHCLKFreq() >> ((D1CorePrescTable[(RCC->CDCFGR2 & RCC_CDCFGR2_CDPPRE1)>> RCC_CD
1485:Drivers/STM32H7xx_HAL_Driver/Src/stm32h7xx_hal_rcc.c **** #endif
1486:Drivers/STM32H7xx_HAL_Driver/Src/stm32h7xx_hal_rcc.c **** }
 2882              		.loc 1 1486 1 view .LVU1006
 2883 0016 D840     		lsrs	r0, r0, r3
 2884 0018 08BD     		pop	{r3, pc}
 2885              	.L288:
 2886 001a 00BF     		.align	2
 2887              	.L287:
 2888 001c 00440258 		.word	1476543488
 2889 0020 00000000 		.word	D1CorePrescTable
 2890              		.cfi_endproc
 2891              	.LFE149:
ARM GAS  /tmp/ccLdxC59.s 			page 91


 2893              		.section	.text.HAL_RCC_GetPCLK2Freq,"ax",%progbits
 2894              		.align	1
 2895              		.p2align 2,,3
 2896              		.global	HAL_RCC_GetPCLK2Freq
 2897              		.syntax unified
 2898              		.thumb
 2899              		.thumb_func
 2900              		.fpu fpv5-d16
 2902              	HAL_RCC_GetPCLK2Freq:
 2903              	.LFB150:
1487:Drivers/STM32H7xx_HAL_Driver/Src/stm32h7xx_hal_rcc.c **** 
1488:Drivers/STM32H7xx_HAL_Driver/Src/stm32h7xx_hal_rcc.c **** 
1489:Drivers/STM32H7xx_HAL_Driver/Src/stm32h7xx_hal_rcc.c **** /**
1490:Drivers/STM32H7xx_HAL_Driver/Src/stm32h7xx_hal_rcc.c ****   * @brief  Returns the PCLK2 frequency
1491:Drivers/STM32H7xx_HAL_Driver/Src/stm32h7xx_hal_rcc.c ****   * @note   Each time PCLK2 changes, this function must be called to update the
1492:Drivers/STM32H7xx_HAL_Driver/Src/stm32h7xx_hal_rcc.c ****   *         right PCLK2 value. Otherwise, any configuration based on this function will be incorrec
1493:Drivers/STM32H7xx_HAL_Driver/Src/stm32h7xx_hal_rcc.c ****   * @retval PCLK1 frequency
1494:Drivers/STM32H7xx_HAL_Driver/Src/stm32h7xx_hal_rcc.c ****   */
1495:Drivers/STM32H7xx_HAL_Driver/Src/stm32h7xx_hal_rcc.c **** uint32_t HAL_RCC_GetPCLK2Freq(void)
1496:Drivers/STM32H7xx_HAL_Driver/Src/stm32h7xx_hal_rcc.c **** {
 2904              		.loc 1 1496 1 is_stmt 1 view -0
 2905              		.cfi_startproc
 2906              		@ args = 0, pretend = 0, frame = 0
 2907              		@ frame_needed = 0, uses_anonymous_args = 0
1497:Drivers/STM32H7xx_HAL_Driver/Src/stm32h7xx_hal_rcc.c ****   /* Get HCLK source and Compute PCLK1 frequency ---------------------------*/
1498:Drivers/STM32H7xx_HAL_Driver/Src/stm32h7xx_hal_rcc.c **** #if defined(RCC_D2CFGR_D2PPRE2)
1499:Drivers/STM32H7xx_HAL_Driver/Src/stm32h7xx_hal_rcc.c ****   return (HAL_RCC_GetHCLKFreq() >> ((D1CorePrescTable[(RCC->D2CFGR & RCC_D2CFGR_D2PPRE2)>> RCC_D2CF
 2908              		.loc 1 1499 3 view .LVU1008
1496:Drivers/STM32H7xx_HAL_Driver/Src/stm32h7xx_hal_rcc.c ****   /* Get HCLK source and Compute PCLK1 frequency ---------------------------*/
 2909              		.loc 1 1496 1 is_stmt 0 view .LVU1009
 2910 0000 08B5     		push	{r3, lr}
 2911              	.LCFI19:
 2912              		.cfi_def_cfa_offset 8
 2913              		.cfi_offset 3, -8
 2914              		.cfi_offset 14, -4
 2915              		.loc 1 1499 11 view .LVU1010
 2916 0002 FFF7FEFF 		bl	HAL_RCC_GetHCLKFreq
 2917              	.LVL202:
 2918              		.loc 1 1499 59 view .LVU1011
 2919 0006 054B     		ldr	r3, .L291
 2920              		.loc 1 1499 54 view .LVU1012
 2921 0008 054A     		ldr	r2, .L291+4
 2922              		.loc 1 1499 59 view .LVU1013
 2923 000a DB69     		ldr	r3, [r3, #28]
 2924              		.loc 1 1499 89 view .LVU1014
 2925 000c C3F30223 		ubfx	r3, r3, #8, #3
 2926              		.loc 1 1499 117 view .LVU1015
 2927 0010 D35C     		ldrb	r3, [r2, r3]	@ zero_extendqisi2
 2928 0012 03F01F03 		and	r3, r3, #31
1500:Drivers/STM32H7xx_HAL_Driver/Src/stm32h7xx_hal_rcc.c **** #else
1501:Drivers/STM32H7xx_HAL_Driver/Src/stm32h7xx_hal_rcc.c ****   return (HAL_RCC_GetHCLKFreq() >> ((D1CorePrescTable[(RCC->CDCFGR2 & RCC_CDCFGR2_CDPPRE2)>> RCC_CD
1502:Drivers/STM32H7xx_HAL_Driver/Src/stm32h7xx_hal_rcc.c **** #endif
1503:Drivers/STM32H7xx_HAL_Driver/Src/stm32h7xx_hal_rcc.c **** }
 2929              		.loc 1 1503 1 view .LVU1016
 2930 0016 D840     		lsrs	r0, r0, r3
 2931 0018 08BD     		pop	{r3, pc}
 2932              	.L292:
ARM GAS  /tmp/ccLdxC59.s 			page 92


 2933 001a 00BF     		.align	2
 2934              	.L291:
 2935 001c 00440258 		.word	1476543488
 2936 0020 00000000 		.word	D1CorePrescTable
 2937              		.cfi_endproc
 2938              	.LFE150:
 2940              		.section	.text.HAL_RCC_GetOscConfig,"ax",%progbits
 2941              		.align	1
 2942              		.p2align 2,,3
 2943              		.global	HAL_RCC_GetOscConfig
 2944              		.syntax unified
 2945              		.thumb
 2946              		.thumb_func
 2947              		.fpu fpv5-d16
 2949              	HAL_RCC_GetOscConfig:
 2950              	.LVL203:
 2951              	.LFB151:
1504:Drivers/STM32H7xx_HAL_Driver/Src/stm32h7xx_hal_rcc.c **** 
1505:Drivers/STM32H7xx_HAL_Driver/Src/stm32h7xx_hal_rcc.c **** /**
1506:Drivers/STM32H7xx_HAL_Driver/Src/stm32h7xx_hal_rcc.c ****   * @brief  Configures the RCC_OscInitStruct according to the internal
1507:Drivers/STM32H7xx_HAL_Driver/Src/stm32h7xx_hal_rcc.c ****   * RCC configuration registers.
1508:Drivers/STM32H7xx_HAL_Driver/Src/stm32h7xx_hal_rcc.c ****   * @param  RCC_OscInitStruct: pointer to an RCC_OscInitTypeDef structure that
1509:Drivers/STM32H7xx_HAL_Driver/Src/stm32h7xx_hal_rcc.c ****   * will be configured.
1510:Drivers/STM32H7xx_HAL_Driver/Src/stm32h7xx_hal_rcc.c ****   * @retval None
1511:Drivers/STM32H7xx_HAL_Driver/Src/stm32h7xx_hal_rcc.c ****   */
1512:Drivers/STM32H7xx_HAL_Driver/Src/stm32h7xx_hal_rcc.c **** void HAL_RCC_GetOscConfig(RCC_OscInitTypeDef  *RCC_OscInitStruct)
1513:Drivers/STM32H7xx_HAL_Driver/Src/stm32h7xx_hal_rcc.c **** {
 2952              		.loc 1 1513 1 is_stmt 1 view -0
 2953              		.cfi_startproc
 2954              		@ args = 0, pretend = 0, frame = 0
 2955              		@ frame_needed = 0, uses_anonymous_args = 0
1514:Drivers/STM32H7xx_HAL_Driver/Src/stm32h7xx_hal_rcc.c ****   /* Set all possible values for the Oscillator type parameter ---------------*/
1515:Drivers/STM32H7xx_HAL_Driver/Src/stm32h7xx_hal_rcc.c ****   RCC_OscInitStruct->OscillatorType = RCC_OSCILLATORTYPE_HSE | RCC_OSCILLATORTYPE_HSI | RCC_OSCILLA
 2956              		.loc 1 1515 3 view .LVU1018
1513:Drivers/STM32H7xx_HAL_Driver/Src/stm32h7xx_hal_rcc.c ****   /* Set all possible values for the Oscillator type parameter ---------------*/
 2957              		.loc 1 1513 1 is_stmt 0 view .LVU1019
 2958 0000 38B5     		push	{r3, r4, r5, lr}
 2959              	.LCFI20:
 2960              		.cfi_def_cfa_offset 16
 2961              		.cfi_offset 3, -16
 2962              		.cfi_offset 4, -12
 2963              		.cfi_offset 5, -8
 2964              		.cfi_offset 14, -4
 2965              		.loc 1 1515 37 view .LVU1020
 2966 0002 3F22     		movs	r2, #63
1516:Drivers/STM32H7xx_HAL_Driver/Src/stm32h7xx_hal_rcc.c ****                                       RCC_OSCILLATORTYPE_LSE | RCC_OSCILLATORTYPE_LSI| RCC_OSCILLAT
1517:Drivers/STM32H7xx_HAL_Driver/Src/stm32h7xx_hal_rcc.c **** 
1518:Drivers/STM32H7xx_HAL_Driver/Src/stm32h7xx_hal_rcc.c ****   /* Get the HSE configuration -----------------------------------------------*/
1519:Drivers/STM32H7xx_HAL_Driver/Src/stm32h7xx_hal_rcc.c **** #if defined(RCC_CR_HSEEXT)
1520:Drivers/STM32H7xx_HAL_Driver/Src/stm32h7xx_hal_rcc.c ****   if((RCC->CR &(RCC_CR_HSEBYP | RCC_CR_HSEEXT)) == RCC_CR_HSEBYP)
1521:Drivers/STM32H7xx_HAL_Driver/Src/stm32h7xx_hal_rcc.c ****   {
1522:Drivers/STM32H7xx_HAL_Driver/Src/stm32h7xx_hal_rcc.c ****     RCC_OscInitStruct->HSEState = RCC_HSE_BYPASS;
1523:Drivers/STM32H7xx_HAL_Driver/Src/stm32h7xx_hal_rcc.c ****   }
1524:Drivers/STM32H7xx_HAL_Driver/Src/stm32h7xx_hal_rcc.c ****   else if((RCC->CR &(RCC_CR_HSEBYP | RCC_CR_HSEEXT)) == (RCC_CR_HSEBYP | RCC_CR_HSEEXT))
1525:Drivers/STM32H7xx_HAL_Driver/Src/stm32h7xx_hal_rcc.c ****   {
1526:Drivers/STM32H7xx_HAL_Driver/Src/stm32h7xx_hal_rcc.c ****     RCC_OscInitStruct->HSEState = RCC_HSE_BYPASS_DIGITAL;
1527:Drivers/STM32H7xx_HAL_Driver/Src/stm32h7xx_hal_rcc.c ****   }
ARM GAS  /tmp/ccLdxC59.s 			page 93


1528:Drivers/STM32H7xx_HAL_Driver/Src/stm32h7xx_hal_rcc.c ****   else if((RCC->CR &RCC_CR_HSEON) == RCC_CR_HSEON)
1529:Drivers/STM32H7xx_HAL_Driver/Src/stm32h7xx_hal_rcc.c ****   {
1530:Drivers/STM32H7xx_HAL_Driver/Src/stm32h7xx_hal_rcc.c ****     RCC_OscInitStruct->HSEState = RCC_HSE_ON;
1531:Drivers/STM32H7xx_HAL_Driver/Src/stm32h7xx_hal_rcc.c ****   }
1532:Drivers/STM32H7xx_HAL_Driver/Src/stm32h7xx_hal_rcc.c ****   else
1533:Drivers/STM32H7xx_HAL_Driver/Src/stm32h7xx_hal_rcc.c ****   {
1534:Drivers/STM32H7xx_HAL_Driver/Src/stm32h7xx_hal_rcc.c ****     RCC_OscInitStruct->HSEState = RCC_HSE_OFF;
1535:Drivers/STM32H7xx_HAL_Driver/Src/stm32h7xx_hal_rcc.c ****   }
1536:Drivers/STM32H7xx_HAL_Driver/Src/stm32h7xx_hal_rcc.c **** #else
1537:Drivers/STM32H7xx_HAL_Driver/Src/stm32h7xx_hal_rcc.c ****   if((RCC->CR &RCC_CR_HSEBYP) == RCC_CR_HSEBYP)
 2967              		.loc 1 1537 10 view .LVU1021
 2968 0004 3D4B     		ldr	r3, .L309
1513:Drivers/STM32H7xx_HAL_Driver/Src/stm32h7xx_hal_rcc.c ****   /* Set all possible values for the Oscillator type parameter ---------------*/
 2969              		.loc 1 1513 1 view .LVU1022
 2970 0006 0446     		mov	r4, r0
1515:Drivers/STM32H7xx_HAL_Driver/Src/stm32h7xx_hal_rcc.c ****                                       RCC_OSCILLATORTYPE_LSE | RCC_OSCILLATORTYPE_LSI| RCC_OSCILLAT
 2971              		.loc 1 1515 37 view .LVU1023
 2972 0008 0260     		str	r2, [r0]
 2973              		.loc 1 1537 3 is_stmt 1 view .LVU1024
 2974              		.loc 1 1537 10 is_stmt 0 view .LVU1025
 2975 000a 1A68     		ldr	r2, [r3]
 2976              		.loc 1 1537 5 view .LVU1026
 2977 000c 5203     		lsls	r2, r2, #13
 2978 000e 61D5     		bpl	.L294
1538:Drivers/STM32H7xx_HAL_Driver/Src/stm32h7xx_hal_rcc.c ****   {
1539:Drivers/STM32H7xx_HAL_Driver/Src/stm32h7xx_hal_rcc.c ****     RCC_OscInitStruct->HSEState = RCC_HSE_BYPASS;
 2979              		.loc 1 1539 5 is_stmt 1 view .LVU1027
 2980              		.loc 1 1539 33 is_stmt 0 view .LVU1028
 2981 0010 4FF4A023 		mov	r3, #327680
 2982 0014 4360     		str	r3, [r0, #4]
 2983              	.L295:
1540:Drivers/STM32H7xx_HAL_Driver/Src/stm32h7xx_hal_rcc.c ****   }
1541:Drivers/STM32H7xx_HAL_Driver/Src/stm32h7xx_hal_rcc.c ****   else if((RCC->CR &RCC_CR_HSEON) == RCC_CR_HSEON)
1542:Drivers/STM32H7xx_HAL_Driver/Src/stm32h7xx_hal_rcc.c ****   {
1543:Drivers/STM32H7xx_HAL_Driver/Src/stm32h7xx_hal_rcc.c ****     RCC_OscInitStruct->HSEState = RCC_HSE_ON;
1544:Drivers/STM32H7xx_HAL_Driver/Src/stm32h7xx_hal_rcc.c ****   }
1545:Drivers/STM32H7xx_HAL_Driver/Src/stm32h7xx_hal_rcc.c ****   else
1546:Drivers/STM32H7xx_HAL_Driver/Src/stm32h7xx_hal_rcc.c ****   {
1547:Drivers/STM32H7xx_HAL_Driver/Src/stm32h7xx_hal_rcc.c ****     RCC_OscInitStruct->HSEState = RCC_HSE_OFF;
1548:Drivers/STM32H7xx_HAL_Driver/Src/stm32h7xx_hal_rcc.c ****   }
1549:Drivers/STM32H7xx_HAL_Driver/Src/stm32h7xx_hal_rcc.c **** #endif /* RCC_CR_HSEEXT */
1550:Drivers/STM32H7xx_HAL_Driver/Src/stm32h7xx_hal_rcc.c **** 
1551:Drivers/STM32H7xx_HAL_Driver/Src/stm32h7xx_hal_rcc.c ****    /* Get the CSI configuration -----------------------------------------------*/
1552:Drivers/STM32H7xx_HAL_Driver/Src/stm32h7xx_hal_rcc.c ****   if((RCC->CR &RCC_CR_CSION) == RCC_CR_CSION)
 2984              		.loc 1 1552 3 is_stmt 1 view .LVU1029
 2985              		.loc 1 1552 10 is_stmt 0 view .LVU1030
 2986 0016 394D     		ldr	r5, .L309
 2987 0018 2B68     		ldr	r3, [r5]
1553:Drivers/STM32H7xx_HAL_Driver/Src/stm32h7xx_hal_rcc.c ****   {
1554:Drivers/STM32H7xx_HAL_Driver/Src/stm32h7xx_hal_rcc.c ****     RCC_OscInitStruct->CSIState = RCC_CSI_ON;
 2988              		.loc 1 1554 33 view .LVU1031
 2989 001a 03F08003 		and	r3, r3, #128
 2990 001e E361     		str	r3, [r4, #28]
1555:Drivers/STM32H7xx_HAL_Driver/Src/stm32h7xx_hal_rcc.c ****   }
1556:Drivers/STM32H7xx_HAL_Driver/Src/stm32h7xx_hal_rcc.c ****   else
1557:Drivers/STM32H7xx_HAL_Driver/Src/stm32h7xx_hal_rcc.c ****   {
1558:Drivers/STM32H7xx_HAL_Driver/Src/stm32h7xx_hal_rcc.c ****     RCC_OscInitStruct->CSIState = RCC_CSI_OFF;
ARM GAS  /tmp/ccLdxC59.s 			page 94


1559:Drivers/STM32H7xx_HAL_Driver/Src/stm32h7xx_hal_rcc.c ****   }
1560:Drivers/STM32H7xx_HAL_Driver/Src/stm32h7xx_hal_rcc.c **** 
1561:Drivers/STM32H7xx_HAL_Driver/Src/stm32h7xx_hal_rcc.c **** #if defined(RCC_VER_X)
1562:Drivers/STM32H7xx_HAL_Driver/Src/stm32h7xx_hal_rcc.c ****   if(HAL_GetREVID() <= REV_ID_Y)
 2991              		.loc 1 1562 3 is_stmt 1 view .LVU1032
 2992              		.loc 1 1562 6 is_stmt 0 view .LVU1033
 2993 0020 FFF7FEFF 		bl	HAL_GetREVID
 2994              	.LVL204:
 2995              		.loc 1 1562 5 view .LVU1034
 2996 0024 41F20303 		movw	r3, #4099
 2997 0028 9842     		cmp	r0, r3
 2998 002a 62D8     		bhi	.L298
1563:Drivers/STM32H7xx_HAL_Driver/Src/stm32h7xx_hal_rcc.c ****   {
1564:Drivers/STM32H7xx_HAL_Driver/Src/stm32h7xx_hal_rcc.c ****     RCC_OscInitStruct->CSICalibrationValue = (uint32_t)(READ_BIT(RCC->HSICFGR, HAL_RCC_REV_Y_CSITRI
 2999              		.loc 1 1564 5 is_stmt 1 view .LVU1035
 3000              		.loc 1 1564 57 is_stmt 0 view .LVU1036
 3001 002c 6B68     		ldr	r3, [r5, #4]
 3002              		.loc 1 1564 46 view .LVU1037
 3003 002e C3F38463 		ubfx	r3, r3, #26, #5
 3004              	.L299:
1565:Drivers/STM32H7xx_HAL_Driver/Src/stm32h7xx_hal_rcc.c ****   }
1566:Drivers/STM32H7xx_HAL_Driver/Src/stm32h7xx_hal_rcc.c ****   else
1567:Drivers/STM32H7xx_HAL_Driver/Src/stm32h7xx_hal_rcc.c ****   {
1568:Drivers/STM32H7xx_HAL_Driver/Src/stm32h7xx_hal_rcc.c ****     RCC_OscInitStruct->CSICalibrationValue = (uint32_t)(READ_BIT(RCC->CSICFGR, RCC_CSICFGR_CSITRIM)
1569:Drivers/STM32H7xx_HAL_Driver/Src/stm32h7xx_hal_rcc.c ****   }
1570:Drivers/STM32H7xx_HAL_Driver/Src/stm32h7xx_hal_rcc.c **** #else
1571:Drivers/STM32H7xx_HAL_Driver/Src/stm32h7xx_hal_rcc.c ****  RCC_OscInitStruct->CSICalibrationValue = (uint32_t)(READ_BIT(RCC->CSICFGR, RCC_CSICFGR_CSITRIM) >>
1572:Drivers/STM32H7xx_HAL_Driver/Src/stm32h7xx_hal_rcc.c **** #endif /*RCC_VER_X*/
1573:Drivers/STM32H7xx_HAL_Driver/Src/stm32h7xx_hal_rcc.c **** 
1574:Drivers/STM32H7xx_HAL_Driver/Src/stm32h7xx_hal_rcc.c ****   /* Get the HSI configuration -----------------------------------------------*/
1575:Drivers/STM32H7xx_HAL_Driver/Src/stm32h7xx_hal_rcc.c ****   if((RCC->CR &RCC_CR_HSION) == RCC_CR_HSION)
 3005              		.loc 1 1575 10 view .LVU1038
 3006 0032 324D     		ldr	r5, .L309
 3007 0034 2362     		str	r3, [r4, #32]
 3008              		.loc 1 1575 3 is_stmt 1 view .LVU1039
 3009              		.loc 1 1575 10 is_stmt 0 view .LVU1040
 3010 0036 2B68     		ldr	r3, [r5]
 3011              		.loc 1 1575 15 view .LVU1041
 3012 0038 03F00103 		and	r3, r3, #1
 3013 003c E360     		str	r3, [r4, #12]
1576:Drivers/STM32H7xx_HAL_Driver/Src/stm32h7xx_hal_rcc.c ****   {
1577:Drivers/STM32H7xx_HAL_Driver/Src/stm32h7xx_hal_rcc.c ****     RCC_OscInitStruct->HSIState = RCC_HSI_ON;
1578:Drivers/STM32H7xx_HAL_Driver/Src/stm32h7xx_hal_rcc.c ****   }
1579:Drivers/STM32H7xx_HAL_Driver/Src/stm32h7xx_hal_rcc.c ****   else
1580:Drivers/STM32H7xx_HAL_Driver/Src/stm32h7xx_hal_rcc.c ****   {
1581:Drivers/STM32H7xx_HAL_Driver/Src/stm32h7xx_hal_rcc.c ****     RCC_OscInitStruct->HSIState = RCC_HSI_OFF;
1582:Drivers/STM32H7xx_HAL_Driver/Src/stm32h7xx_hal_rcc.c ****   }
1583:Drivers/STM32H7xx_HAL_Driver/Src/stm32h7xx_hal_rcc.c **** 
1584:Drivers/STM32H7xx_HAL_Driver/Src/stm32h7xx_hal_rcc.c **** #if defined(RCC_VER_X)
1585:Drivers/STM32H7xx_HAL_Driver/Src/stm32h7xx_hal_rcc.c ****   if(HAL_GetREVID() <= REV_ID_Y)
 3014              		.loc 1 1585 3 is_stmt 1 view .LVU1042
 3015              		.loc 1 1585 6 is_stmt 0 view .LVU1043
 3016 003e FFF7FEFF 		bl	HAL_GetREVID
 3017              	.LVL205:
1586:Drivers/STM32H7xx_HAL_Driver/Src/stm32h7xx_hal_rcc.c ****   {
1587:Drivers/STM32H7xx_HAL_Driver/Src/stm32h7xx_hal_rcc.c ****     RCC_OscInitStruct->HSICalibrationValue = (uint32_t)(READ_BIT(RCC->HSICFGR, HAL_RCC_REV_Y_HSITRI
 3018              		.loc 1 1587 5 is_stmt 1 view .LVU1044
ARM GAS  /tmp/ccLdxC59.s 			page 95


1588:Drivers/STM32H7xx_HAL_Driver/Src/stm32h7xx_hal_rcc.c ****   }
1589:Drivers/STM32H7xx_HAL_Driver/Src/stm32h7xx_hal_rcc.c ****   else
1590:Drivers/STM32H7xx_HAL_Driver/Src/stm32h7xx_hal_rcc.c ****   {
1591:Drivers/STM32H7xx_HAL_Driver/Src/stm32h7xx_hal_rcc.c ****     RCC_OscInitStruct->HSICalibrationValue = (uint32_t)(READ_BIT(RCC->HSICFGR, RCC_HSICFGR_HSITRIM)
 3019              		.loc 1 1591 5 view .LVU1045
1585:Drivers/STM32H7xx_HAL_Driver/Src/stm32h7xx_hal_rcc.c ****   {
 3020              		.loc 1 1585 5 is_stmt 0 view .LVU1046
 3021 0042 41F20303 		movw	r3, #4099
1592:Drivers/STM32H7xx_HAL_Driver/Src/stm32h7xx_hal_rcc.c ****   }
1593:Drivers/STM32H7xx_HAL_Driver/Src/stm32h7xx_hal_rcc.c **** #else
1594:Drivers/STM32H7xx_HAL_Driver/Src/stm32h7xx_hal_rcc.c ****     RCC_OscInitStruct->HSICalibrationValue = (uint32_t)(READ_BIT(RCC->HSICFGR, RCC_HSICFGR_HSITRIM)
1595:Drivers/STM32H7xx_HAL_Driver/Src/stm32h7xx_hal_rcc.c **** #endif /*RCC_VER_X*/
1596:Drivers/STM32H7xx_HAL_Driver/Src/stm32h7xx_hal_rcc.c **** 
1597:Drivers/STM32H7xx_HAL_Driver/Src/stm32h7xx_hal_rcc.c ****   /* Get the LSE configuration -----------------------------------------------*/
1598:Drivers/STM32H7xx_HAL_Driver/Src/stm32h7xx_hal_rcc.c **** #if defined(RCC_BDCR_LSEEXT)
1599:Drivers/STM32H7xx_HAL_Driver/Src/stm32h7xx_hal_rcc.c ****   if((RCC->BDCR &(RCC_BDCR_LSEBYP|RCC_BDCR_LSEEXT)) == RCC_BDCR_LSEBYP)
1600:Drivers/STM32H7xx_HAL_Driver/Src/stm32h7xx_hal_rcc.c ****   {
1601:Drivers/STM32H7xx_HAL_Driver/Src/stm32h7xx_hal_rcc.c ****     RCC_OscInitStruct->LSEState = RCC_LSE_BYPASS;
1602:Drivers/STM32H7xx_HAL_Driver/Src/stm32h7xx_hal_rcc.c ****   }
1603:Drivers/STM32H7xx_HAL_Driver/Src/stm32h7xx_hal_rcc.c ****   else if((RCC->BDCR &(RCC_BDCR_LSEBYP|RCC_BDCR_LSEEXT)) == (RCC_BDCR_LSEBYP|RCC_BDCR_LSEEXT))
1604:Drivers/STM32H7xx_HAL_Driver/Src/stm32h7xx_hal_rcc.c ****   {
1605:Drivers/STM32H7xx_HAL_Driver/Src/stm32h7xx_hal_rcc.c ****     RCC_OscInitStruct->LSEState = RCC_LSE_BYPASS_DIGITAL;
1606:Drivers/STM32H7xx_HAL_Driver/Src/stm32h7xx_hal_rcc.c ****   }
1607:Drivers/STM32H7xx_HAL_Driver/Src/stm32h7xx_hal_rcc.c ****   else if((RCC->BDCR &RCC_BDCR_LSEON) == RCC_BDCR_LSEON)
1608:Drivers/STM32H7xx_HAL_Driver/Src/stm32h7xx_hal_rcc.c ****   {
1609:Drivers/STM32H7xx_HAL_Driver/Src/stm32h7xx_hal_rcc.c ****     RCC_OscInitStruct->LSEState = RCC_LSE_ON;
1610:Drivers/STM32H7xx_HAL_Driver/Src/stm32h7xx_hal_rcc.c ****   }
1611:Drivers/STM32H7xx_HAL_Driver/Src/stm32h7xx_hal_rcc.c ****   else
1612:Drivers/STM32H7xx_HAL_Driver/Src/stm32h7xx_hal_rcc.c ****   {
1613:Drivers/STM32H7xx_HAL_Driver/Src/stm32h7xx_hal_rcc.c ****     RCC_OscInitStruct->LSEState = RCC_LSE_OFF;
1614:Drivers/STM32H7xx_HAL_Driver/Src/stm32h7xx_hal_rcc.c ****   }
1615:Drivers/STM32H7xx_HAL_Driver/Src/stm32h7xx_hal_rcc.c **** #else
1616:Drivers/STM32H7xx_HAL_Driver/Src/stm32h7xx_hal_rcc.c ****   if((RCC->BDCR &RCC_BDCR_LSEBYP) == RCC_BDCR_LSEBYP)
 3022              		.loc 1 1616 10 view .LVU1047
 3023 0046 2D4A     		ldr	r2, .L309
1585:Drivers/STM32H7xx_HAL_Driver/Src/stm32h7xx_hal_rcc.c ****   {
 3024              		.loc 1 1585 5 view .LVU1048
 3025 0048 9842     		cmp	r0, r3
1587:Drivers/STM32H7xx_HAL_Driver/Src/stm32h7xx_hal_rcc.c ****   }
 3026              		.loc 1 1587 57 view .LVU1049
 3027 004a 6B68     		ldr	r3, [r5, #4]
1587:Drivers/STM32H7xx_HAL_Driver/Src/stm32h7xx_hal_rcc.c ****   }
 3028              		.loc 1 1587 46 view .LVU1050
 3029 004c 94BF     		ite	ls
 3030 004e C3F30533 		ubfxls	r3, r3, #12, #6
1591:Drivers/STM32H7xx_HAL_Driver/Src/stm32h7xx_hal_rcc.c ****   }
 3031              		.loc 1 1591 46 view .LVU1051
 3032 0052 C3F30663 		ubfxhi	r3, r3, #24, #7
 3033 0056 2361     		str	r3, [r4, #16]
 3034              		.loc 1 1616 3 is_stmt 1 view .LVU1052
 3035              		.loc 1 1616 10 is_stmt 0 view .LVU1053
 3036 0058 136F     		ldr	r3, [r2, #112]
 3037              		.loc 1 1616 5 view .LVU1054
 3038 005a 5B07     		lsls	r3, r3, #29
 3039 005c 42D5     		bpl	.L302
1617:Drivers/STM32H7xx_HAL_Driver/Src/stm32h7xx_hal_rcc.c ****   {
1618:Drivers/STM32H7xx_HAL_Driver/Src/stm32h7xx_hal_rcc.c ****     RCC_OscInitStruct->LSEState = RCC_LSE_BYPASS;
ARM GAS  /tmp/ccLdxC59.s 			page 96


 3040              		.loc 1 1618 5 is_stmt 1 view .LVU1055
 3041              		.loc 1 1618 33 is_stmt 0 view .LVU1056
 3042 005e 0523     		movs	r3, #5
 3043 0060 A360     		str	r3, [r4, #8]
 3044              	.L303:
1619:Drivers/STM32H7xx_HAL_Driver/Src/stm32h7xx_hal_rcc.c ****   }
1620:Drivers/STM32H7xx_HAL_Driver/Src/stm32h7xx_hal_rcc.c ****   else if((RCC->BDCR &RCC_BDCR_LSEON) == RCC_BDCR_LSEON)
1621:Drivers/STM32H7xx_HAL_Driver/Src/stm32h7xx_hal_rcc.c ****   {
1622:Drivers/STM32H7xx_HAL_Driver/Src/stm32h7xx_hal_rcc.c ****     RCC_OscInitStruct->LSEState = RCC_LSE_ON;
1623:Drivers/STM32H7xx_HAL_Driver/Src/stm32h7xx_hal_rcc.c ****   }
1624:Drivers/STM32H7xx_HAL_Driver/Src/stm32h7xx_hal_rcc.c ****   else
1625:Drivers/STM32H7xx_HAL_Driver/Src/stm32h7xx_hal_rcc.c ****   {
1626:Drivers/STM32H7xx_HAL_Driver/Src/stm32h7xx_hal_rcc.c ****     RCC_OscInitStruct->LSEState = RCC_LSE_OFF;
1627:Drivers/STM32H7xx_HAL_Driver/Src/stm32h7xx_hal_rcc.c ****   }
1628:Drivers/STM32H7xx_HAL_Driver/Src/stm32h7xx_hal_rcc.c **** #endif /* RCC_BDCR_LSEEXT */
1629:Drivers/STM32H7xx_HAL_Driver/Src/stm32h7xx_hal_rcc.c **** 
1630:Drivers/STM32H7xx_HAL_Driver/Src/stm32h7xx_hal_rcc.c ****   /* Get the LSI configuration -----------------------------------------------*/
1631:Drivers/STM32H7xx_HAL_Driver/Src/stm32h7xx_hal_rcc.c ****   if((RCC->CSR &RCC_CSR_LSION) == RCC_CSR_LSION)
 3045              		.loc 1 1631 3 is_stmt 1 view .LVU1057
 3046              		.loc 1 1631 10 is_stmt 0 view .LVU1058
 3047 0062 264B     		ldr	r3, .L309
 3048 0064 5A6F     		ldr	r2, [r3, #116]
 3049              		.loc 1 1631 16 view .LVU1059
 3050 0066 02F00102 		and	r2, r2, #1
 3051 006a 6261     		str	r2, [r4, #20]
1632:Drivers/STM32H7xx_HAL_Driver/Src/stm32h7xx_hal_rcc.c ****   {
1633:Drivers/STM32H7xx_HAL_Driver/Src/stm32h7xx_hal_rcc.c ****     RCC_OscInitStruct->LSIState = RCC_LSI_ON;
1634:Drivers/STM32H7xx_HAL_Driver/Src/stm32h7xx_hal_rcc.c ****   }
1635:Drivers/STM32H7xx_HAL_Driver/Src/stm32h7xx_hal_rcc.c ****   else
1636:Drivers/STM32H7xx_HAL_Driver/Src/stm32h7xx_hal_rcc.c ****   {
1637:Drivers/STM32H7xx_HAL_Driver/Src/stm32h7xx_hal_rcc.c ****     RCC_OscInitStruct->LSIState = RCC_LSI_OFF;
1638:Drivers/STM32H7xx_HAL_Driver/Src/stm32h7xx_hal_rcc.c ****   }
1639:Drivers/STM32H7xx_HAL_Driver/Src/stm32h7xx_hal_rcc.c **** 
1640:Drivers/STM32H7xx_HAL_Driver/Src/stm32h7xx_hal_rcc.c ****   /* Get the HSI48 configuration ---------------------------------------------*/
1641:Drivers/STM32H7xx_HAL_Driver/Src/stm32h7xx_hal_rcc.c ****   if((RCC->CR & RCC_CR_HSI48ON) == RCC_CR_HSI48ON)
 3052              		.loc 1 1641 3 is_stmt 1 view .LVU1060
 3053              		.loc 1 1641 10 is_stmt 0 view .LVU1061
 3054 006c 1A68     		ldr	r2, [r3]
 3055              		.loc 1 1641 5 view .LVU1062
 3056 006e C2F30032 		ubfx	r2, r2, #12, #1
 3057 0072 A261     		str	r2, [r4, #24]
1642:Drivers/STM32H7xx_HAL_Driver/Src/stm32h7xx_hal_rcc.c ****   {
1643:Drivers/STM32H7xx_HAL_Driver/Src/stm32h7xx_hal_rcc.c ****     RCC_OscInitStruct->HSI48State = RCC_HSI48_ON;
1644:Drivers/STM32H7xx_HAL_Driver/Src/stm32h7xx_hal_rcc.c ****   }
1645:Drivers/STM32H7xx_HAL_Driver/Src/stm32h7xx_hal_rcc.c ****   else
1646:Drivers/STM32H7xx_HAL_Driver/Src/stm32h7xx_hal_rcc.c ****   {
1647:Drivers/STM32H7xx_HAL_Driver/Src/stm32h7xx_hal_rcc.c ****     RCC_OscInitStruct->HSI48State = RCC_HSI48_OFF;
1648:Drivers/STM32H7xx_HAL_Driver/Src/stm32h7xx_hal_rcc.c ****   }
1649:Drivers/STM32H7xx_HAL_Driver/Src/stm32h7xx_hal_rcc.c **** 
1650:Drivers/STM32H7xx_HAL_Driver/Src/stm32h7xx_hal_rcc.c ****   /* Get the PLL configuration -----------------------------------------------*/
1651:Drivers/STM32H7xx_HAL_Driver/Src/stm32h7xx_hal_rcc.c ****   if((RCC->CR &RCC_CR_PLLON) == RCC_CR_PLLON)
 3058              		.loc 1 1651 3 is_stmt 1 view .LVU1063
 3059              		.loc 1 1651 10 is_stmt 0 view .LVU1064
 3060 0074 1A68     		ldr	r2, [r3]
1652:Drivers/STM32H7xx_HAL_Driver/Src/stm32h7xx_hal_rcc.c ****   {
1653:Drivers/STM32H7xx_HAL_Driver/Src/stm32h7xx_hal_rcc.c ****     RCC_OscInitStruct->PLL.PLLState = RCC_PLL_ON;
1654:Drivers/STM32H7xx_HAL_Driver/Src/stm32h7xx_hal_rcc.c ****   }
ARM GAS  /tmp/ccLdxC59.s 			page 97


1655:Drivers/STM32H7xx_HAL_Driver/Src/stm32h7xx_hal_rcc.c ****   else
1656:Drivers/STM32H7xx_HAL_Driver/Src/stm32h7xx_hal_rcc.c ****   {
1657:Drivers/STM32H7xx_HAL_Driver/Src/stm32h7xx_hal_rcc.c ****     RCC_OscInitStruct->PLL.PLLState = RCC_PLL_OFF;
 3061              		.loc 1 1657 37 view .LVU1065
 3062 0076 12F0807F 		tst	r2, #16777216
 3063 007a 14BF     		ite	ne
 3064 007c 0222     		movne	r2, #2
 3065 007e 0122     		moveq	r2, #1
 3066 0080 6262     		str	r2, [r4, #36]
1658:Drivers/STM32H7xx_HAL_Driver/Src/stm32h7xx_hal_rcc.c ****   }
1659:Drivers/STM32H7xx_HAL_Driver/Src/stm32h7xx_hal_rcc.c ****   RCC_OscInitStruct->PLL.PLLSource = (uint32_t)(RCC->PLLCKSELR & RCC_PLLCKSELR_PLLSRC);
 3067              		.loc 1 1659 3 is_stmt 1 view .LVU1066
 3068              		.loc 1 1659 52 is_stmt 0 view .LVU1067
 3069 0082 9A6A     		ldr	r2, [r3, #40]
 3070              		.loc 1 1659 38 view .LVU1068
 3071 0084 02F00302 		and	r2, r2, #3
 3072              		.loc 1 1659 36 view .LVU1069
 3073 0088 A262     		str	r2, [r4, #40]
1660:Drivers/STM32H7xx_HAL_Driver/Src/stm32h7xx_hal_rcc.c ****   RCC_OscInitStruct->PLL.PLLM = (uint32_t)((RCC->PLLCKSELR & RCC_PLLCKSELR_DIVM1)>> RCC_PLLCKSELR_D
 3074              		.loc 1 1660 3 is_stmt 1 view .LVU1070
 3075              		.loc 1 1660 48 is_stmt 0 view .LVU1071
 3076 008a 9A6A     		ldr	r2, [r3, #40]
 3077              		.loc 1 1660 33 view .LVU1072
 3078 008c C2F30512 		ubfx	r2, r2, #4, #6
 3079              		.loc 1 1660 31 view .LVU1073
 3080 0090 E262     		str	r2, [r4, #44]
1661:Drivers/STM32H7xx_HAL_Driver/Src/stm32h7xx_hal_rcc.c ****   RCC_OscInitStruct->PLL.PLLN = (uint32_t)((RCC->PLL1DIVR & RCC_PLL1DIVR_N1) >> RCC_PLL1DIVR_N1_Pos
 3081              		.loc 1 1661 3 is_stmt 1 view .LVU1074
 3082              		.loc 1 1661 48 is_stmt 0 view .LVU1075
 3083 0092 1A6B     		ldr	r2, [r3, #48]
 3084              		.loc 1 1661 33 view .LVU1076
 3085 0094 C2F30802 		ubfx	r2, r2, #0, #9
 3086              		.loc 1 1661 101 view .LVU1077
 3087 0098 0132     		adds	r2, r2, #1
 3088              		.loc 1 1661 31 view .LVU1078
 3089 009a 2263     		str	r2, [r4, #48]
1662:Drivers/STM32H7xx_HAL_Driver/Src/stm32h7xx_hal_rcc.c ****   RCC_OscInitStruct->PLL.PLLR = (uint32_t)((RCC->PLL1DIVR & RCC_PLL1DIVR_R1) >> RCC_PLL1DIVR_R1_Pos
 3090              		.loc 1 1662 3 is_stmt 1 view .LVU1079
 3091              		.loc 1 1662 48 is_stmt 0 view .LVU1080
 3092 009c 1A6B     		ldr	r2, [r3, #48]
 3093              		.loc 1 1662 33 view .LVU1081
 3094 009e C2F30662 		ubfx	r2, r2, #24, #7
 3095              		.loc 1 1662 101 view .LVU1082
 3096 00a2 0132     		adds	r2, r2, #1
 3097              		.loc 1 1662 31 view .LVU1083
 3098 00a4 E263     		str	r2, [r4, #60]
1663:Drivers/STM32H7xx_HAL_Driver/Src/stm32h7xx_hal_rcc.c ****   RCC_OscInitStruct->PLL.PLLP = (uint32_t)((RCC->PLL1DIVR & RCC_PLL1DIVR_P1) >> RCC_PLL1DIVR_P1_Pos
 3099              		.loc 1 1663 3 is_stmt 1 view .LVU1084
 3100              		.loc 1 1663 48 is_stmt 0 view .LVU1085
 3101 00a6 1A6B     		ldr	r2, [r3, #48]
 3102              		.loc 1 1663 33 view .LVU1086
 3103 00a8 C2F34622 		ubfx	r2, r2, #9, #7
 3104              		.loc 1 1663 101 view .LVU1087
 3105 00ac 0132     		adds	r2, r2, #1
 3106              		.loc 1 1663 31 view .LVU1088
 3107 00ae 6263     		str	r2, [r4, #52]
1664:Drivers/STM32H7xx_HAL_Driver/Src/stm32h7xx_hal_rcc.c ****   RCC_OscInitStruct->PLL.PLLQ = (uint32_t)((RCC->PLL1DIVR & RCC_PLL1DIVR_Q1) >> RCC_PLL1DIVR_Q1_Pos
ARM GAS  /tmp/ccLdxC59.s 			page 98


 3108              		.loc 1 1664 3 is_stmt 1 view .LVU1089
 3109              		.loc 1 1664 48 is_stmt 0 view .LVU1090
 3110 00b0 1A6B     		ldr	r2, [r3, #48]
 3111              		.loc 1 1664 33 view .LVU1091
 3112 00b2 C2F30642 		ubfx	r2, r2, #16, #7
 3113              		.loc 1 1664 101 view .LVU1092
 3114 00b6 0132     		adds	r2, r2, #1
 3115              		.loc 1 1664 31 view .LVU1093
 3116 00b8 A263     		str	r2, [r4, #56]
1665:Drivers/STM32H7xx_HAL_Driver/Src/stm32h7xx_hal_rcc.c ****   RCC_OscInitStruct->PLL.PLLRGE = (uint32_t)((RCC->PLLCFGR & RCC_PLLCFGR_PLL1RGE));
 3117              		.loc 1 1665 3 is_stmt 1 view .LVU1094
 3118              		.loc 1 1665 50 is_stmt 0 view .LVU1095
 3119 00ba DA6A     		ldr	r2, [r3, #44]
 3120              		.loc 1 1665 35 view .LVU1096
 3121 00bc 02F00C02 		and	r2, r2, #12
 3122              		.loc 1 1665 33 view .LVU1097
 3123 00c0 2264     		str	r2, [r4, #64]
1666:Drivers/STM32H7xx_HAL_Driver/Src/stm32h7xx_hal_rcc.c ****   RCC_OscInitStruct->PLL.PLLVCOSEL = (uint32_t)((RCC->PLLCFGR & RCC_PLLCFGR_PLL1VCOSEL) >> RCC_PLLC
 3124              		.loc 1 1666 3 is_stmt 1 view .LVU1098
 3125              		.loc 1 1666 53 is_stmt 0 view .LVU1099
 3126 00c2 DA6A     		ldr	r2, [r3, #44]
 3127              		.loc 1 1666 38 view .LVU1100
 3128 00c4 C2F34002 		ubfx	r2, r2, #1, #1
 3129              		.loc 1 1666 36 view .LVU1101
 3130 00c8 6264     		str	r2, [r4, #68]
1667:Drivers/STM32H7xx_HAL_Driver/Src/stm32h7xx_hal_rcc.c ****   RCC_OscInitStruct->PLL.PLLFRACN = (uint32_t)(((RCC->PLL1FRACR & RCC_PLL1FRACR_FRACN1) >> RCC_PLL1
 3131              		.loc 1 1667 3 is_stmt 1 view .LVU1102
 3132              		.loc 1 1667 53 is_stmt 0 view .LVU1103
 3133 00ca 5B6B     		ldr	r3, [r3, #52]
 3134              		.loc 1 1667 37 view .LVU1104
 3135 00cc C3F3CC03 		ubfx	r3, r3, #3, #13
 3136              		.loc 1 1667 35 view .LVU1105
 3137 00d0 A364     		str	r3, [r4, #72]
1668:Drivers/STM32H7xx_HAL_Driver/Src/stm32h7xx_hal_rcc.c **** }
 3138              		.loc 1 1668 1 view .LVU1106
 3139 00d2 38BD     		pop	{r3, r4, r5, pc}
 3140              	.LVL206:
 3141              	.L294:
1541:Drivers/STM32H7xx_HAL_Driver/Src/stm32h7xx_hal_rcc.c ****   {
 3142              		.loc 1 1541 8 is_stmt 1 view .LVU1107
1541:Drivers/STM32H7xx_HAL_Driver/Src/stm32h7xx_hal_rcc.c ****   {
 3143              		.loc 1 1541 15 is_stmt 0 view .LVU1108
 3144 00d4 1B68     		ldr	r3, [r3]
1541:Drivers/STM32H7xx_HAL_Driver/Src/stm32h7xx_hal_rcc.c ****   {
 3145              		.loc 1 1541 10 view .LVU1109
 3146 00d6 13F48033 		ands	r3, r3, #65536
1543:Drivers/STM32H7xx_HAL_Driver/Src/stm32h7xx_hal_rcc.c ****   }
 3147              		.loc 1 1543 5 is_stmt 1 view .LVU1110
1543:Drivers/STM32H7xx_HAL_Driver/Src/stm32h7xx_hal_rcc.c ****   }
 3148              		.loc 1 1543 33 is_stmt 0 view .LVU1111
 3149 00da 18BF     		it	ne
 3150 00dc 4FF48033 		movne	r3, #65536
1547:Drivers/STM32H7xx_HAL_Driver/Src/stm32h7xx_hal_rcc.c ****   }
 3151              		.loc 1 1547 5 is_stmt 1 view .LVU1112
1547:Drivers/STM32H7xx_HAL_Driver/Src/stm32h7xx_hal_rcc.c ****   }
 3152              		.loc 1 1547 33 is_stmt 0 view .LVU1113
 3153 00e0 4360     		str	r3, [r0, #4]
ARM GAS  /tmp/ccLdxC59.s 			page 99


 3154 00e2 98E7     		b	.L295
 3155              	.LVL207:
 3156              	.L302:
1620:Drivers/STM32H7xx_HAL_Driver/Src/stm32h7xx_hal_rcc.c ****   {
 3157              		.loc 1 1620 8 is_stmt 1 view .LVU1114
1620:Drivers/STM32H7xx_HAL_Driver/Src/stm32h7xx_hal_rcc.c ****   {
 3158              		.loc 1 1620 15 is_stmt 0 view .LVU1115
 3159 00e4 136F     		ldr	r3, [r2, #112]
1620:Drivers/STM32H7xx_HAL_Driver/Src/stm32h7xx_hal_rcc.c ****   {
 3160              		.loc 1 1620 10 view .LVU1116
 3161 00e6 13F00103 		ands	r3, r3, #1
1622:Drivers/STM32H7xx_HAL_Driver/Src/stm32h7xx_hal_rcc.c ****   }
 3162              		.loc 1 1622 5 is_stmt 1 view .LVU1117
1622:Drivers/STM32H7xx_HAL_Driver/Src/stm32h7xx_hal_rcc.c ****   }
 3163              		.loc 1 1622 33 is_stmt 0 view .LVU1118
 3164 00ea 18BF     		it	ne
 3165 00ec 0123     		movne	r3, #1
1626:Drivers/STM32H7xx_HAL_Driver/Src/stm32h7xx_hal_rcc.c ****   }
 3166              		.loc 1 1626 5 is_stmt 1 view .LVU1119
1626:Drivers/STM32H7xx_HAL_Driver/Src/stm32h7xx_hal_rcc.c ****   }
 3167              		.loc 1 1626 33 is_stmt 0 view .LVU1120
 3168 00ee A360     		str	r3, [r4, #8]
 3169 00f0 B7E7     		b	.L303
 3170              	.L298:
1568:Drivers/STM32H7xx_HAL_Driver/Src/stm32h7xx_hal_rcc.c ****   }
 3171              		.loc 1 1568 5 is_stmt 1 view .LVU1121
1568:Drivers/STM32H7xx_HAL_Driver/Src/stm32h7xx_hal_rcc.c ****   }
 3172              		.loc 1 1568 57 is_stmt 0 view .LVU1122
 3173 00f2 EB68     		ldr	r3, [r5, #12]
1568:Drivers/STM32H7xx_HAL_Driver/Src/stm32h7xx_hal_rcc.c ****   }
 3174              		.loc 1 1568 46 view .LVU1123
 3175 00f4 C3F30563 		ubfx	r3, r3, #24, #6
 3176 00f8 9BE7     		b	.L299
 3177              	.L310:
 3178 00fa 00BF     		.align	2
 3179              	.L309:
 3180 00fc 00440258 		.word	1476543488
 3181              		.cfi_endproc
 3182              	.LFE151:
 3184              		.section	.text.HAL_RCC_GetClockConfig,"ax",%progbits
 3185              		.align	1
 3186              		.p2align 2,,3
 3187              		.global	HAL_RCC_GetClockConfig
 3188              		.syntax unified
 3189              		.thumb
 3190              		.thumb_func
 3191              		.fpu fpv5-d16
 3193              	HAL_RCC_GetClockConfig:
 3194              	.LVL208:
 3195              	.LFB152:
1669:Drivers/STM32H7xx_HAL_Driver/Src/stm32h7xx_hal_rcc.c **** 
1670:Drivers/STM32H7xx_HAL_Driver/Src/stm32h7xx_hal_rcc.c **** /**
1671:Drivers/STM32H7xx_HAL_Driver/Src/stm32h7xx_hal_rcc.c ****   * @brief  Configures the RCC_ClkInitStruct according to the internal
1672:Drivers/STM32H7xx_HAL_Driver/Src/stm32h7xx_hal_rcc.c ****   * RCC configuration registers.
1673:Drivers/STM32H7xx_HAL_Driver/Src/stm32h7xx_hal_rcc.c ****   * @param  RCC_ClkInitStruct: pointer to an RCC_ClkInitTypeDef structure that
1674:Drivers/STM32H7xx_HAL_Driver/Src/stm32h7xx_hal_rcc.c ****   * will be configured.
1675:Drivers/STM32H7xx_HAL_Driver/Src/stm32h7xx_hal_rcc.c ****   * @param  pFLatency: Pointer on the Flash Latency.
ARM GAS  /tmp/ccLdxC59.s 			page 100


1676:Drivers/STM32H7xx_HAL_Driver/Src/stm32h7xx_hal_rcc.c ****   * @retval None
1677:Drivers/STM32H7xx_HAL_Driver/Src/stm32h7xx_hal_rcc.c ****   */
1678:Drivers/STM32H7xx_HAL_Driver/Src/stm32h7xx_hal_rcc.c **** void HAL_RCC_GetClockConfig(RCC_ClkInitTypeDef  *RCC_ClkInitStruct, uint32_t *pFLatency)
1679:Drivers/STM32H7xx_HAL_Driver/Src/stm32h7xx_hal_rcc.c **** {
 3196              		.loc 1 1679 1 is_stmt 1 view -0
 3197              		.cfi_startproc
 3198              		@ args = 0, pretend = 0, frame = 0
 3199              		@ frame_needed = 0, uses_anonymous_args = 0
 3200              		@ link register save eliminated.
1680:Drivers/STM32H7xx_HAL_Driver/Src/stm32h7xx_hal_rcc.c ****   /* Set all possible values for the Clock type parameter --------------------*/
1681:Drivers/STM32H7xx_HAL_Driver/Src/stm32h7xx_hal_rcc.c ****   RCC_ClkInitStruct->ClockType = RCC_CLOCKTYPE_SYSCLK | RCC_CLOCKTYPE_HCLK | RCC_CLOCKTYPE_D1PCLK1 
 3201              		.loc 1 1681 3 view .LVU1125
1682:Drivers/STM32H7xx_HAL_Driver/Src/stm32h7xx_hal_rcc.c ****                                  RCC_CLOCKTYPE_PCLK2 |  RCC_CLOCKTYPE_D3PCLK1  ;
1683:Drivers/STM32H7xx_HAL_Driver/Src/stm32h7xx_hal_rcc.c **** 
1684:Drivers/STM32H7xx_HAL_Driver/Src/stm32h7xx_hal_rcc.c ****   /* Get the SYSCLK configuration --------------------------------------------*/
1685:Drivers/STM32H7xx_HAL_Driver/Src/stm32h7xx_hal_rcc.c ****   RCC_ClkInitStruct->SYSCLKSource = (uint32_t)(RCC->CFGR & RCC_CFGR_SW);
 3202              		.loc 1 1685 51 is_stmt 0 view .LVU1126
 3203 0000 134B     		ldr	r3, .L313
1681:Drivers/STM32H7xx_HAL_Driver/Src/stm32h7xx_hal_rcc.c ****                                  RCC_CLOCKTYPE_PCLK2 |  RCC_CLOCKTYPE_D3PCLK1  ;
 3204              		.loc 1 1681 32 view .LVU1127
 3205 0002 3F22     		movs	r2, #63
 3206 0004 0260     		str	r2, [r0]
 3207              		.loc 1 1685 3 is_stmt 1 view .LVU1128
 3208              		.loc 1 1685 51 is_stmt 0 view .LVU1129
 3209 0006 1A69     		ldr	r2, [r3, #16]
 3210              		.loc 1 1685 37 view .LVU1130
 3211 0008 02F00702 		and	r2, r2, #7
 3212              		.loc 1 1685 35 view .LVU1131
 3213 000c 4260     		str	r2, [r0, #4]
1686:Drivers/STM32H7xx_HAL_Driver/Src/stm32h7xx_hal_rcc.c **** 
1687:Drivers/STM32H7xx_HAL_Driver/Src/stm32h7xx_hal_rcc.c **** #if defined(RCC_D1CFGR_D1CPRE)
1688:Drivers/STM32H7xx_HAL_Driver/Src/stm32h7xx_hal_rcc.c ****   /* Get the SYSCLK configuration ----------------------------------------------*/
1689:Drivers/STM32H7xx_HAL_Driver/Src/stm32h7xx_hal_rcc.c ****   RCC_ClkInitStruct->SYSCLKDivider = (uint32_t)(RCC->D1CFGR & RCC_D1CFGR_D1CPRE);
 3214              		.loc 1 1689 3 is_stmt 1 view .LVU1132
 3215              		.loc 1 1689 52 is_stmt 0 view .LVU1133
 3216 000e 9A69     		ldr	r2, [r3, #24]
 3217              		.loc 1 1689 38 view .LVU1134
 3218 0010 02F47062 		and	r2, r2, #3840
 3219              		.loc 1 1689 36 view .LVU1135
 3220 0014 8260     		str	r2, [r0, #8]
1690:Drivers/STM32H7xx_HAL_Driver/Src/stm32h7xx_hal_rcc.c **** 
1691:Drivers/STM32H7xx_HAL_Driver/Src/stm32h7xx_hal_rcc.c ****   /* Get the D1HCLK configuration ----------------------------------------------*/
1692:Drivers/STM32H7xx_HAL_Driver/Src/stm32h7xx_hal_rcc.c ****   RCC_ClkInitStruct->AHBCLKDivider = (uint32_t)(RCC->D1CFGR & RCC_D1CFGR_HPRE);
 3221              		.loc 1 1692 3 is_stmt 1 view .LVU1136
 3222              		.loc 1 1692 52 is_stmt 0 view .LVU1137
 3223 0016 9A69     		ldr	r2, [r3, #24]
 3224              		.loc 1 1692 38 view .LVU1138
 3225 0018 02F00F02 		and	r2, r2, #15
 3226              		.loc 1 1692 36 view .LVU1139
 3227 001c C260     		str	r2, [r0, #12]
1693:Drivers/STM32H7xx_HAL_Driver/Src/stm32h7xx_hal_rcc.c **** 
1694:Drivers/STM32H7xx_HAL_Driver/Src/stm32h7xx_hal_rcc.c ****   /* Get the APB3 configuration ----------------------------------------------*/
1695:Drivers/STM32H7xx_HAL_Driver/Src/stm32h7xx_hal_rcc.c ****   RCC_ClkInitStruct->APB3CLKDivider = (uint32_t)(RCC->D1CFGR & RCC_D1CFGR_D1PPRE);
 3228              		.loc 1 1695 3 is_stmt 1 view .LVU1140
 3229              		.loc 1 1695 53 is_stmt 0 view .LVU1141
 3230 001e 9A69     		ldr	r2, [r3, #24]
 3231              		.loc 1 1695 39 view .LVU1142
ARM GAS  /tmp/ccLdxC59.s 			page 101


 3232 0020 02F07002 		and	r2, r2, #112
 3233              		.loc 1 1695 37 view .LVU1143
 3234 0024 0261     		str	r2, [r0, #16]
1696:Drivers/STM32H7xx_HAL_Driver/Src/stm32h7xx_hal_rcc.c **** 
1697:Drivers/STM32H7xx_HAL_Driver/Src/stm32h7xx_hal_rcc.c ****   /* Get the APB1 configuration ----------------------------------------------*/
1698:Drivers/STM32H7xx_HAL_Driver/Src/stm32h7xx_hal_rcc.c ****   RCC_ClkInitStruct->APB1CLKDivider = (uint32_t)(RCC->D2CFGR & RCC_D2CFGR_D2PPRE1);
 3235              		.loc 1 1698 3 is_stmt 1 view .LVU1144
 3236              		.loc 1 1698 53 is_stmt 0 view .LVU1145
 3237 0026 DA69     		ldr	r2, [r3, #28]
 3238              		.loc 1 1698 39 view .LVU1146
 3239 0028 02F07002 		and	r2, r2, #112
 3240              		.loc 1 1698 37 view .LVU1147
 3241 002c 4261     		str	r2, [r0, #20]
1699:Drivers/STM32H7xx_HAL_Driver/Src/stm32h7xx_hal_rcc.c **** 
1700:Drivers/STM32H7xx_HAL_Driver/Src/stm32h7xx_hal_rcc.c ****   /* Get the APB2 configuration ----------------------------------------------*/
1701:Drivers/STM32H7xx_HAL_Driver/Src/stm32h7xx_hal_rcc.c ****   RCC_ClkInitStruct->APB2CLKDivider = (uint32_t)(RCC->D2CFGR & RCC_D2CFGR_D2PPRE2);
 3242              		.loc 1 1701 3 is_stmt 1 view .LVU1148
 3243              		.loc 1 1701 53 is_stmt 0 view .LVU1149
 3244 002e DA69     		ldr	r2, [r3, #28]
 3245              		.loc 1 1701 39 view .LVU1150
 3246 0030 02F4E062 		and	r2, r2, #1792
 3247              		.loc 1 1701 37 view .LVU1151
 3248 0034 8261     		str	r2, [r0, #24]
1702:Drivers/STM32H7xx_HAL_Driver/Src/stm32h7xx_hal_rcc.c **** 
1703:Drivers/STM32H7xx_HAL_Driver/Src/stm32h7xx_hal_rcc.c ****   /* Get the APB4 configuration ----------------------------------------------*/
1704:Drivers/STM32H7xx_HAL_Driver/Src/stm32h7xx_hal_rcc.c ****   RCC_ClkInitStruct->APB4CLKDivider = (uint32_t)(RCC->D3CFGR & RCC_D3CFGR_D3PPRE);
 3249              		.loc 1 1704 3 is_stmt 1 view .LVU1152
 3250              		.loc 1 1704 53 is_stmt 0 view .LVU1153
 3251 0036 1B6A     		ldr	r3, [r3, #32]
1679:Drivers/STM32H7xx_HAL_Driver/Src/stm32h7xx_hal_rcc.c ****   /* Set all possible values for the Clock type parameter --------------------*/
 3252              		.loc 1 1679 1 view .LVU1154
 3253 0038 10B4     		push	{r4}
 3254              	.LCFI21:
 3255              		.cfi_def_cfa_offset 4
 3256              		.cfi_offset 4, -4
 3257              		.loc 1 1704 39 view .LVU1155
 3258 003a 03F07003 		and	r3, r3, #112
1705:Drivers/STM32H7xx_HAL_Driver/Src/stm32h7xx_hal_rcc.c **** #else
1706:Drivers/STM32H7xx_HAL_Driver/Src/stm32h7xx_hal_rcc.c ****   /* Get the SYSCLK configuration ----------------------------------------------*/
1707:Drivers/STM32H7xx_HAL_Driver/Src/stm32h7xx_hal_rcc.c ****   RCC_ClkInitStruct->SYSCLKDivider = (uint32_t)(RCC->CDCFGR1 & RCC_CDCFGR1_CDCPRE);
1708:Drivers/STM32H7xx_HAL_Driver/Src/stm32h7xx_hal_rcc.c **** 
1709:Drivers/STM32H7xx_HAL_Driver/Src/stm32h7xx_hal_rcc.c ****   /* Get the D1HCLK configuration ----------------------------------------------*/
1710:Drivers/STM32H7xx_HAL_Driver/Src/stm32h7xx_hal_rcc.c ****   RCC_ClkInitStruct->AHBCLKDivider = (uint32_t)(RCC->CDCFGR1 & RCC_CDCFGR1_HPRE);
1711:Drivers/STM32H7xx_HAL_Driver/Src/stm32h7xx_hal_rcc.c **** 
1712:Drivers/STM32H7xx_HAL_Driver/Src/stm32h7xx_hal_rcc.c ****   /* Get the APB3 configuration ----------------------------------------------*/
1713:Drivers/STM32H7xx_HAL_Driver/Src/stm32h7xx_hal_rcc.c ****   RCC_ClkInitStruct->APB3CLKDivider = (uint32_t)(RCC->CDCFGR1 & RCC_CDCFGR1_CDPPRE);
1714:Drivers/STM32H7xx_HAL_Driver/Src/stm32h7xx_hal_rcc.c **** 
1715:Drivers/STM32H7xx_HAL_Driver/Src/stm32h7xx_hal_rcc.c ****   /* Get the APB1 configuration ----------------------------------------------*/
1716:Drivers/STM32H7xx_HAL_Driver/Src/stm32h7xx_hal_rcc.c ****   RCC_ClkInitStruct->APB1CLKDivider = (uint32_t)(RCC->CDCFGR2 & RCC_CDCFGR2_CDPPRE1);
1717:Drivers/STM32H7xx_HAL_Driver/Src/stm32h7xx_hal_rcc.c **** 
1718:Drivers/STM32H7xx_HAL_Driver/Src/stm32h7xx_hal_rcc.c ****   /* Get the APB2 configuration ----------------------------------------------*/
1719:Drivers/STM32H7xx_HAL_Driver/Src/stm32h7xx_hal_rcc.c ****   RCC_ClkInitStruct->APB2CLKDivider = (uint32_t)(RCC->CDCFGR2 & RCC_CDCFGR2_CDPPRE2);
1720:Drivers/STM32H7xx_HAL_Driver/Src/stm32h7xx_hal_rcc.c **** 
1721:Drivers/STM32H7xx_HAL_Driver/Src/stm32h7xx_hal_rcc.c ****   /* Get the APB4 configuration ----------------------------------------------*/
1722:Drivers/STM32H7xx_HAL_Driver/Src/stm32h7xx_hal_rcc.c ****   RCC_ClkInitStruct->APB4CLKDivider = (uint32_t)(RCC->SRDCFGR & RCC_SRDCFGR_SRDPPRE);
1723:Drivers/STM32H7xx_HAL_Driver/Src/stm32h7xx_hal_rcc.c **** #endif
1724:Drivers/STM32H7xx_HAL_Driver/Src/stm32h7xx_hal_rcc.c **** 
ARM GAS  /tmp/ccLdxC59.s 			page 102


1725:Drivers/STM32H7xx_HAL_Driver/Src/stm32h7xx_hal_rcc.c ****   /* Get the Flash Wait State (Latency) configuration ------------------------*/
1726:Drivers/STM32H7xx_HAL_Driver/Src/stm32h7xx_hal_rcc.c ****   *pFLatency = (uint32_t)(FLASH->ACR & FLASH_ACR_LATENCY);
 3259              		.loc 1 1726 32 view .LVU1156
 3260 003e 054C     		ldr	r4, .L313+4
1704:Drivers/STM32H7xx_HAL_Driver/Src/stm32h7xx_hal_rcc.c **** #else
 3261              		.loc 1 1704 37 view .LVU1157
 3262 0040 C361     		str	r3, [r0, #28]
 3263              		.loc 1 1726 3 is_stmt 1 view .LVU1158
 3264              		.loc 1 1726 32 is_stmt 0 view .LVU1159
 3265 0042 2368     		ldr	r3, [r4]
1727:Drivers/STM32H7xx_HAL_Driver/Src/stm32h7xx_hal_rcc.c **** }
 3266              		.loc 1 1727 1 view .LVU1160
 3267 0044 5DF8044B 		ldr	r4, [sp], #4
 3268              	.LCFI22:
 3269              		.cfi_restore 4
 3270              		.cfi_def_cfa_offset 0
1726:Drivers/STM32H7xx_HAL_Driver/Src/stm32h7xx_hal_rcc.c **** }
 3271              		.loc 1 1726 16 view .LVU1161
 3272 0048 03F00F03 		and	r3, r3, #15
1726:Drivers/STM32H7xx_HAL_Driver/Src/stm32h7xx_hal_rcc.c **** }
 3273              		.loc 1 1726 14 view .LVU1162
 3274 004c 0B60     		str	r3, [r1]
 3275              		.loc 1 1727 1 view .LVU1163
 3276 004e 7047     		bx	lr
 3277              	.L314:
 3278              		.align	2
 3279              	.L313:
 3280 0050 00440258 		.word	1476543488
 3281 0054 00200052 		.word	1375739904
 3282              		.cfi_endproc
 3283              	.LFE152:
 3285              		.section	.text.HAL_RCC_CSSCallback,"ax",%progbits
 3286              		.align	1
 3287              		.p2align 2,,3
 3288              		.weak	HAL_RCC_CSSCallback
 3289              		.syntax unified
 3290              		.thumb
 3291              		.thumb_func
 3292              		.fpu fpv5-d16
 3294              	HAL_RCC_CSSCallback:
 3295              	.LFB154:
1728:Drivers/STM32H7xx_HAL_Driver/Src/stm32h7xx_hal_rcc.c **** 
1729:Drivers/STM32H7xx_HAL_Driver/Src/stm32h7xx_hal_rcc.c **** /**
1730:Drivers/STM32H7xx_HAL_Driver/Src/stm32h7xx_hal_rcc.c ****   * @brief This function handles the RCC CSS interrupt request.
1731:Drivers/STM32H7xx_HAL_Driver/Src/stm32h7xx_hal_rcc.c ****   * @note This API should be called under the NMI_Handler().
1732:Drivers/STM32H7xx_HAL_Driver/Src/stm32h7xx_hal_rcc.c ****   * @retval None
1733:Drivers/STM32H7xx_HAL_Driver/Src/stm32h7xx_hal_rcc.c ****   */
1734:Drivers/STM32H7xx_HAL_Driver/Src/stm32h7xx_hal_rcc.c **** void HAL_RCC_NMI_IRQHandler(void)
1735:Drivers/STM32H7xx_HAL_Driver/Src/stm32h7xx_hal_rcc.c **** {
1736:Drivers/STM32H7xx_HAL_Driver/Src/stm32h7xx_hal_rcc.c ****   /* Check RCC CSSF flag  */
1737:Drivers/STM32H7xx_HAL_Driver/Src/stm32h7xx_hal_rcc.c ****   if(__HAL_RCC_GET_IT(RCC_IT_CSS))
1738:Drivers/STM32H7xx_HAL_Driver/Src/stm32h7xx_hal_rcc.c ****   {
1739:Drivers/STM32H7xx_HAL_Driver/Src/stm32h7xx_hal_rcc.c ****     /* RCC Clock Security System interrupt user callback */
1740:Drivers/STM32H7xx_HAL_Driver/Src/stm32h7xx_hal_rcc.c ****     HAL_RCC_CCSCallback();
1741:Drivers/STM32H7xx_HAL_Driver/Src/stm32h7xx_hal_rcc.c **** 
1742:Drivers/STM32H7xx_HAL_Driver/Src/stm32h7xx_hal_rcc.c ****     /* Clear RCC CSS pending bit */
1743:Drivers/STM32H7xx_HAL_Driver/Src/stm32h7xx_hal_rcc.c ****     __HAL_RCC_CLEAR_IT(RCC_IT_CSS);
ARM GAS  /tmp/ccLdxC59.s 			page 103


1744:Drivers/STM32H7xx_HAL_Driver/Src/stm32h7xx_hal_rcc.c ****   }
1745:Drivers/STM32H7xx_HAL_Driver/Src/stm32h7xx_hal_rcc.c **** }
1746:Drivers/STM32H7xx_HAL_Driver/Src/stm32h7xx_hal_rcc.c **** 
1747:Drivers/STM32H7xx_HAL_Driver/Src/stm32h7xx_hal_rcc.c **** /**
1748:Drivers/STM32H7xx_HAL_Driver/Src/stm32h7xx_hal_rcc.c ****   * @brief  RCC Clock Security System interrupt callback
1749:Drivers/STM32H7xx_HAL_Driver/Src/stm32h7xx_hal_rcc.c ****   * @retval none
1750:Drivers/STM32H7xx_HAL_Driver/Src/stm32h7xx_hal_rcc.c ****   */
1751:Drivers/STM32H7xx_HAL_Driver/Src/stm32h7xx_hal_rcc.c **** __weak void HAL_RCC_CCSCallback(void)
1752:Drivers/STM32H7xx_HAL_Driver/Src/stm32h7xx_hal_rcc.c **** {
 3296              		.loc 1 1752 1 is_stmt 1 view -0
 3297              		.cfi_startproc
 3298              		@ args = 0, pretend = 0, frame = 0
 3299              		@ frame_needed = 0, uses_anonymous_args = 0
 3300              		@ link register save eliminated.
1753:Drivers/STM32H7xx_HAL_Driver/Src/stm32h7xx_hal_rcc.c ****   /* NOTE : This function Should not be modified, when the callback is needed,
1754:Drivers/STM32H7xx_HAL_Driver/Src/stm32h7xx_hal_rcc.c ****             the HAL_RCC_CCSCallback could be implemented in the user file
1755:Drivers/STM32H7xx_HAL_Driver/Src/stm32h7xx_hal_rcc.c ****    */
1756:Drivers/STM32H7xx_HAL_Driver/Src/stm32h7xx_hal_rcc.c **** }
 3301              		.loc 1 1756 1 view .LVU1165
 3302 0000 7047     		bx	lr
 3303              		.cfi_endproc
 3304              	.LFE154:
 3306 0002 00BF     		.section	.text.HAL_RCC_NMI_IRQHandler,"ax",%progbits
 3307              		.align	1
 3308              		.p2align 2,,3
 3309              		.global	HAL_RCC_NMI_IRQHandler
 3310              		.syntax unified
 3311              		.thumb
 3312              		.thumb_func
 3313              		.fpu fpv5-d16
 3315              	HAL_RCC_NMI_IRQHandler:
 3316              	.LFB153:
1735:Drivers/STM32H7xx_HAL_Driver/Src/stm32h7xx_hal_rcc.c ****   /* Check RCC CSSF flag  */
 3317              		.loc 1 1735 1 view -0
 3318              		.cfi_startproc
 3319              		@ args = 0, pretend = 0, frame = 0
 3320              		@ frame_needed = 0, uses_anonymous_args = 0
1737:Drivers/STM32H7xx_HAL_Driver/Src/stm32h7xx_hal_rcc.c ****   {
 3321              		.loc 1 1737 3 view .LVU1167
1735:Drivers/STM32H7xx_HAL_Driver/Src/stm32h7xx_hal_rcc.c ****   /* Check RCC CSSF flag  */
 3322              		.loc 1 1735 1 is_stmt 0 view .LVU1168
 3323 0000 10B5     		push	{r4, lr}
 3324              	.LCFI23:
 3325              		.cfi_def_cfa_offset 8
 3326              		.cfi_offset 4, -8
 3327              		.cfi_offset 14, -4
1737:Drivers/STM32H7xx_HAL_Driver/Src/stm32h7xx_hal_rcc.c ****   {
 3328              		.loc 1 1737 6 view .LVU1169
 3329 0002 054C     		ldr	r4, .L323
 3330 0004 636E     		ldr	r3, [r4, #100]
1737:Drivers/STM32H7xx_HAL_Driver/Src/stm32h7xx_hal_rcc.c ****   {
 3331              		.loc 1 1737 5 view .LVU1170
 3332 0006 5B05     		lsls	r3, r3, #21
 3333 0008 00D4     		bmi	.L322
1745:Drivers/STM32H7xx_HAL_Driver/Src/stm32h7xx_hal_rcc.c **** 
 3334              		.loc 1 1745 1 view .LVU1171
 3335 000a 10BD     		pop	{r4, pc}
ARM GAS  /tmp/ccLdxC59.s 			page 104


 3336              	.L322:
1740:Drivers/STM32H7xx_HAL_Driver/Src/stm32h7xx_hal_rcc.c **** 
 3337              		.loc 1 1740 5 is_stmt 1 view .LVU1172
 3338 000c FFF7FEFF 		bl	HAL_RCC_CSSCallback
 3339              	.LVL209:
1743:Drivers/STM32H7xx_HAL_Driver/Src/stm32h7xx_hal_rcc.c ****   }
 3340              		.loc 1 1743 5 view .LVU1173
 3341 0010 4FF48063 		mov	r3, #1024
 3342 0014 A366     		str	r3, [r4, #104]
1745:Drivers/STM32H7xx_HAL_Driver/Src/stm32h7xx_hal_rcc.c **** 
 3343              		.loc 1 1745 1 is_stmt 0 view .LVU1174
 3344 0016 10BD     		pop	{r4, pc}
 3345              	.L324:
 3346              		.align	2
 3347              	.L323:
 3348 0018 00440258 		.word	1476543488
 3349              		.cfi_endproc
 3350              	.LFE153:
 3352              		.text
 3353              	.Letext0:
 3354              		.file 2 "/opt/gcc-arm-none-eabi/arm-none-eabi/include/machine/_default_types.h"
 3355              		.file 3 "/opt/gcc-arm-none-eabi/arm-none-eabi/include/sys/_stdint.h"
 3356              		.file 4 "Drivers/CMSIS/Include/core_cm7.h"
 3357              		.file 5 "Drivers/CMSIS/Device/ST/STM32H7xx/Include/system_stm32h7xx.h"
 3358              		.file 6 "Drivers/CMSIS/Device/ST/STM32H7xx/Include/stm32h750xx.h"
 3359              		.file 7 "/opt/gcc-arm-none-eabi/lib/gcc/arm-none-eabi/9.3.1/include/stddef.h"
 3360              		.file 8 "/opt/gcc-arm-none-eabi/arm-none-eabi/include/sys/_types.h"
 3361              		.file 9 "/opt/gcc-arm-none-eabi/arm-none-eabi/include/sys/reent.h"
 3362              		.file 10 "/opt/gcc-arm-none-eabi/arm-none-eabi/include/sys/lock.h"
 3363              		.file 11 "/opt/gcc-arm-none-eabi/arm-none-eabi/include/math.h"
 3364              		.file 12 "Drivers/STM32H7xx_HAL_Driver/Inc/stm32h7xx_hal_def.h"
 3365              		.file 13 "Drivers/STM32H7xx_HAL_Driver/Inc/stm32h7xx_hal_rcc.h"
 3366              		.file 14 "Drivers/STM32H7xx_HAL_Driver/Inc/stm32h7xx_hal_gpio.h"
 3367              		.file 15 "Drivers/STM32H7xx_HAL_Driver/Inc/stm32h7xx_hal_flash.h"
 3368              		.file 16 "Drivers/STM32H7xx_HAL_Driver/Inc/stm32h7xx_hal.h"
ARM GAS  /tmp/ccLdxC59.s 			page 105


DEFINED SYMBOLS
                            *ABS*:0000000000000000 stm32h7xx_hal_rcc.c
     /tmp/ccLdxC59.s:17     .text.HAL_RCC_DeInit:0000000000000000 $t
     /tmp/ccLdxC59.s:26     .text.HAL_RCC_DeInit:0000000000000000 HAL_RCC_DeInit
     /tmp/ccLdxC59.s:399    .text.HAL_RCC_DeInit:000000000000017c $d
     /tmp/ccLdxC59.s:413    .text.HAL_RCC_OscConfig:0000000000000000 $t
     /tmp/ccLdxC59.s:421    .text.HAL_RCC_OscConfig:0000000000000000 HAL_RCC_OscConfig
     /tmp/ccLdxC59.s:1086   .text.HAL_RCC_OscConfig:00000000000002d0 $d
     /tmp/ccLdxC59.s:1091   .text.HAL_RCC_OscConfig:00000000000002d8 $t
     /tmp/ccLdxC59.s:1682   .text.HAL_RCC_OscConfig:0000000000000588 $d
     /tmp/ccLdxC59.s:1689   .text.HAL_RCC_MCOConfig:0000000000000000 $t
     /tmp/ccLdxC59.s:1697   .text.HAL_RCC_MCOConfig:0000000000000000 HAL_RCC_MCOConfig
     /tmp/ccLdxC59.s:1883   .text.HAL_RCC_MCOConfig:0000000000000098 $d
     /tmp/ccLdxC59.s:1890   .text.HAL_RCC_EnableCSS:0000000000000000 $t
     /tmp/ccLdxC59.s:1898   .text.HAL_RCC_EnableCSS:0000000000000000 HAL_RCC_EnableCSS
     /tmp/ccLdxC59.s:1915   .text.HAL_RCC_EnableCSS:000000000000000c $d
     /tmp/ccLdxC59.s:1920   .text.HAL_RCC_DisableCSS:0000000000000000 $t
     /tmp/ccLdxC59.s:1928   .text.HAL_RCC_DisableCSS:0000000000000000 HAL_RCC_DisableCSS
     /tmp/ccLdxC59.s:1945   .text.HAL_RCC_DisableCSS:000000000000000c $d
     /tmp/ccLdxC59.s:1950   .text.HAL_RCC_GetSysClockFreq:0000000000000000 $t
     /tmp/ccLdxC59.s:1958   .text.HAL_RCC_GetSysClockFreq:0000000000000000 HAL_RCC_GetSysClockFreq
     /tmp/ccLdxC59.s:2222   .text.HAL_RCC_GetSysClockFreq:0000000000000128 $d
     /tmp/ccLdxC59.s:2236   .text.HAL_RCC_ClockConfig:0000000000000000 $t
     /tmp/ccLdxC59.s:2244   .text.HAL_RCC_ClockConfig:0000000000000000 HAL_RCC_ClockConfig
     /tmp/ccLdxC59.s:2761   .text.HAL_RCC_ClockConfig:000000000000023c $d
     /tmp/ccLdxC59.s:2771   .text.HAL_RCC_GetHCLKFreq:0000000000000000 $t
     /tmp/ccLdxC59.s:2779   .text.HAL_RCC_GetHCLKFreq:0000000000000000 HAL_RCC_GetHCLKFreq
     /tmp/ccLdxC59.s:2839   .text.HAL_RCC_GetHCLKFreq:0000000000000034 $d
     /tmp/ccLdxC59.s:2847   .text.HAL_RCC_GetPCLK1Freq:0000000000000000 $t
     /tmp/ccLdxC59.s:2855   .text.HAL_RCC_GetPCLK1Freq:0000000000000000 HAL_RCC_GetPCLK1Freq
     /tmp/ccLdxC59.s:2888   .text.HAL_RCC_GetPCLK1Freq:000000000000001c $d
     /tmp/ccLdxC59.s:2894   .text.HAL_RCC_GetPCLK2Freq:0000000000000000 $t
     /tmp/ccLdxC59.s:2902   .text.HAL_RCC_GetPCLK2Freq:0000000000000000 HAL_RCC_GetPCLK2Freq
     /tmp/ccLdxC59.s:2935   .text.HAL_RCC_GetPCLK2Freq:000000000000001c $d
     /tmp/ccLdxC59.s:2941   .text.HAL_RCC_GetOscConfig:0000000000000000 $t
     /tmp/ccLdxC59.s:2949   .text.HAL_RCC_GetOscConfig:0000000000000000 HAL_RCC_GetOscConfig
     /tmp/ccLdxC59.s:3180   .text.HAL_RCC_GetOscConfig:00000000000000fc $d
     /tmp/ccLdxC59.s:3185   .text.HAL_RCC_GetClockConfig:0000000000000000 $t
     /tmp/ccLdxC59.s:3193   .text.HAL_RCC_GetClockConfig:0000000000000000 HAL_RCC_GetClockConfig
     /tmp/ccLdxC59.s:3280   .text.HAL_RCC_GetClockConfig:0000000000000050 $d
     /tmp/ccLdxC59.s:3286   .text.HAL_RCC_CSSCallback:0000000000000000 $t
     /tmp/ccLdxC59.s:3294   .text.HAL_RCC_CSSCallback:0000000000000000 HAL_RCC_CSSCallback
     /tmp/ccLdxC59.s:3307   .text.HAL_RCC_NMI_IRQHandler:0000000000000000 $t
     /tmp/ccLdxC59.s:3315   .text.HAL_RCC_NMI_IRQHandler:0000000000000000 HAL_RCC_NMI_IRQHandler
     /tmp/ccLdxC59.s:3348   .text.HAL_RCC_NMI_IRQHandler:0000000000000018 $d

UNDEFINED SYMBOLS
HAL_GetTick
HAL_InitTick
uwTickPrio
SystemCoreClock
SystemD2Clock
HAL_GetREVID
HAL_GPIO_Init
D1CorePrescTable
